Component: ARM Compiler 5.06 update 7 (build 960) Tool: armlink [4d3601]

==============================================================================

Section Cross References

    startup_stm32f10x_hd.o(STACK) refers (Special) to heapauxi.o(.text) for __use_two_region_memory
    startup_stm32f10x_hd.o(HEAP) refers (Special) to heapauxi.o(.text) for __use_two_region_memory
    startup_stm32f10x_hd.o(RESET) refers (Special) to heapauxi.o(.text) for __use_two_region_memory
    startup_stm32f10x_hd.o(RESET) refers to startup_stm32f10x_hd.o(STACK) for __initial_sp
    startup_stm32f10x_hd.o(RESET) refers to startup_stm32f10x_hd.o(.text) for Reset_Handler
    startup_stm32f10x_hd.o(RESET) refers to stm32f10x_it.o(i.NMI_Handler) for NMI_Handler
    startup_stm32f10x_hd.o(RESET) refers to stm32f10x_it.o(i.HardFault_Handler) for HardFault_Handler
    startup_stm32f10x_hd.o(RESET) refers to stm32f10x_it.o(i.MemManage_Handler) for MemManage_Handler
    startup_stm32f10x_hd.o(RESET) refers to stm32f10x_it.o(i.BusFault_Handler) for BusFault_Handler
    startup_stm32f10x_hd.o(RESET) refers to stm32f10x_it.o(i.UsageFault_Handler) for UsageFault_Handler
    startup_stm32f10x_hd.o(RESET) refers to stm32f10x_it.o(i.SVC_Handler) for SVC_Handler
    startup_stm32f10x_hd.o(RESET) refers to stm32f10x_it.o(i.DebugMon_Handler) for DebugMon_Handler
    startup_stm32f10x_hd.o(RESET) refers to stm32f10x_it.o(i.PendSV_Handler) for PendSV_Handler
    startup_stm32f10x_hd.o(RESET) refers to stm32f10x_it.o(i.SysTick_Handler) for SysTick_Handler
    startup_stm32f10x_hd.o(RESET) refers to exti.o(i.EXTI1_IRQHandler) for EXTI1_IRQHandler
    startup_stm32f10x_hd.o(RESET) refers to usart.o(i.USART1_IRQHandler) for USART1_IRQHandler
    startup_stm32f10x_hd.o(.text) refers (Special) to heapauxi.o(.text) for __use_two_region_memory
    startup_stm32f10x_hd.o(.text) refers to system_stm32f10x.o(i.SystemInit) for SystemInit
    startup_stm32f10x_hd.o(.text) refers to __main.o(!!!main) for __main
    startup_stm32f10x_hd.o(.text) refers to startup_stm32f10x_hd.o(HEAP) for Heap_Mem
    startup_stm32f10x_hd.o(.text) refers to startup_stm32f10x_hd.o(STACK) for Stack_Mem
    exti.o(i.EXTI1_IRQHandler) refers to stm32f10x_gpio.o(i.GPIO_ReadInputDataBit) for GPIO_ReadInputDataBit
    exti.o(i.EXTI1_IRQHandler) refers to delay.o(i.delay_ms) for delay_ms
    exti.o(i.EXTI1_IRQHandler) refers to stm32f10x_gpio.o(i.GPIO_WriteBit) for GPIO_WriteBit
    exti.o(i.EXTI1_IRQHandler) refers to stm32f10x_exti.o(i.EXTI_ClearITPendingBit) for EXTI_ClearITPendingBit
    exti.o(i.EXTI1_IRQHandler) refers to exti.o(.data) for LED2_BitVal
    exti.o(i.MX_EXTI1_Init) refers to stm32f10x_rcc.o(i.RCC_APB2PeriphClockCmd) for RCC_APB2PeriphClockCmd
    exti.o(i.MX_EXTI1_Init) refers to gpio.o(i.MX_KeyInit) for MX_KeyInit
    exti.o(i.MX_EXTI1_Init) refers to stm32f10x_gpio.o(i.GPIO_EXTILineConfig) for GPIO_EXTILineConfig
    exti.o(i.MX_EXTI1_Init) refers to stm32f10x_exti.o(i.EXTI_Init) for EXTI_Init
    exti.o(i.MX_EXTI1_Init) refers to misc.o(i.NVIC_Init) for NVIC_Init
    main.o(i.debug_print_text) refers to _printf_percent.o(.ARM.Collect$$_printf_percent$$00000000) for _printf_percent
    main.o(i.debug_print_text) refers to _printf_s.o(.ARM.Collect$$_printf_percent$$00000014) for _printf_s
    main.o(i.debug_print_text) refers to _printf_str.o(.text) for _printf_str
    main.o(i.debug_print_text) refers to noretval__2printf.o(.text) for __2printf
    main.o(i.dump_board_audio_debug) refers to _printf_pad.o(.text) for _printf_pre_padding
    main.o(i.dump_board_audio_debug) refers to _printf_percent.o(.ARM.Collect$$_printf_percent$$00000000) for _printf_percent
    main.o(i.dump_board_audio_debug) refers to _printf_d.o(.ARM.Collect$$_printf_percent$$00000009) for _printf_d
    main.o(i.dump_board_audio_debug) refers to _printf_u.o(.ARM.Collect$$_printf_percent$$0000000A) for _printf_u
    main.o(i.dump_board_audio_debug) refers to _printf_x.o(.ARM.Collect$$_printf_percent$$0000000C) for _printf_x
    main.o(i.dump_board_audio_debug) refers to _printf_s.o(.ARM.Collect$$_printf_percent$$00000014) for _printf_s
    main.o(i.dump_board_audio_debug) refers to _printf_dec.o(.text) for _printf_int_dec
    main.o(i.dump_board_audio_debug) refers to _printf_hex_int.o(.text) for _printf_longlong_hex
    main.o(i.dump_board_audio_debug) refers to _printf_str.o(.text) for _printf_str
    main.o(i.dump_board_audio_debug) refers to board_audio.o(i.board_audio_get_debug_info) for board_audio_get_debug_info
    main.o(i.dump_board_audio_debug) refers to noretval__2printf.o(.text) for __2printf
    main.o(i.dump_board_audio_debug) refers to main.o(.conststring) for .conststring
    main.o(i.dump_player_stats) refers to _printf_percent.o(.ARM.Collect$$_printf_percent$$00000000) for _printf_percent
    main.o(i.dump_player_stats) refers to _printf_u.o(.ARM.Collect$$_printf_percent$$0000000A) for _printf_u
    main.o(i.dump_player_stats) refers to _printf_dec.o(.text) for _printf_int_dec
    main.o(i.dump_player_stats) refers to audio_player.o(i.audio_player_get_stats) for audio_player_get_stats
    main.o(i.dump_player_stats) refers to noretval__2printf.o(.text) for __2printf
    main.o(i.dump_player_stats) refers to main.o(.conststring) for .conststring
    main.o(i.dump_record_debug) refers to _printf_percent.o(.ARM.Collect$$_printf_percent$$00000000) for _printf_percent
    main.o(i.dump_record_debug) refers to _printf_d.o(.ARM.Collect$$_printf_percent$$00000009) for _printf_d
    main.o(i.dump_record_debug) refers to _printf_u.o(.ARM.Collect$$_printf_percent$$0000000A) for _printf_u
    main.o(i.dump_record_debug) refers to _printf_dec.o(.text) for _printf_int_dec
    main.o(i.dump_record_debug) refers to audio_record.o(i.audio_record_get_debug_info) for audio_record_get_debug_info
    main.o(i.dump_record_debug) refers to noretval__2printf.o(.text) for __2printf
    main.o(i.main) refers to _printf_percent.o(.ARM.Collect$$_printf_percent$$00000000) for _printf_percent
    main.o(i.main) refers to _printf_s.o(.ARM.Collect$$_printf_percent$$00000014) for _printf_s
    main.o(i.main) refers to _printf_str.o(.text) for _printf_str
    main.o(i.main) refers to _printf_d.o(.ARM.Collect$$_printf_percent$$00000009) for _printf_d
    main.o(i.main) refers to _printf_dec.o(.text) for _printf_int_dec
    main.o(i.main) refers to misc.o(i.NVIC_PriorityGroupConfig) for NVIC_PriorityGroupConfig
    main.o(i.main) refers to delay.o(i.delay_Init) for delay_Init
    main.o(i.main) refers to usart.o(i.MX_USART1_Init) for MX_USART1_Init
    main.o(i.main) refers to noretval__2printf.o(.text) for __2printf
    main.o(i.main) refers to sdcard_stub.o(i.sdcard_stub_set_debug) for sdcard_stub_set_debug
    main.o(i.main) refers to audio_player.o(i.audio_player_set_debug) for audio_player_set_debug
    main.o(i.main) refers to audio_player.o(i.audio_player_init) for audio_player_init
    main.o(i.main) refers to audio_player.o(i.audio_player_last_error) for audio_player_last_error
    main.o(i.main) refers to main.o(i.dump_board_audio_debug) for dump_board_audio_debug
    main.o(i.main) refers to delay.o(i.delay_ms) for delay_ms
    main.o(i.main) refers to board_audio.o(i.board_audio_amp_set) for board_audio_amp_set
    main.o(i.main) refers to board_audio.o(i.board_audio_play_test_tone) for board_audio_play_test_tone
    main.o(i.main) refers to audio_player.o(i.audio_player_find_first_mp3) for audio_player_find_first_mp3
    main.o(i.main) refers to audio_player.o(i.audio_player_play_from_sd) for audio_player_play_from_sd
    main.o(i.main) refers to main.o(i.dump_player_stats) for dump_player_stats
    main.o(i.main) refers to audio_record.o(i.audio_record_demo_once) for audio_record_demo_once
    main.o(i.main) refers to main.o(i.dump_record_debug) for dump_record_debug
    main.o(i.main) refers to main.o(i.debug_print_text) for debug_print_text
    main.o(i.main) refers to main.o(.conststring) for .conststring
    system_stm32f10x.o(i.SetSysClock) refers to system_stm32f10x.o(i.SetSysClockTo72) for SetSysClockTo72
    system_stm32f10x.o(i.SystemCoreClockUpdate) refers to system_stm32f10x.o(.data) for SystemCoreClock
    system_stm32f10x.o(i.SystemInit) refers to system_stm32f10x.o(i.SetSysClock) for SetSysClock
    delay.o(i.delay_Init) refers to misc.o(i.SysTick_CLKSourceConfig) for SysTick_CLKSourceConfig
    delay.o(i.delay_s) refers to delay.o(i.delay_ms) for delay_ms
    gpio.o(i.MX_GPIO_Init) refers to stm32f10x_rcc.o(i.RCC_APB2PeriphClockCmd) for RCC_APB2PeriphClockCmd
    gpio.o(i.MX_GPIO_Init) refers to stm32f10x_gpio.o(i.GPIO_Init) for GPIO_Init
    gpio.o(i.MX_GPIO_Init) refers to stm32f10x_gpio.o(i.GPIO_WriteBit) for GPIO_WriteBit
    gpio.o(i.MX_KeyInit) refers to stm32f10x_rcc.o(i.RCC_APB2PeriphClockCmd) for RCC_APB2PeriphClockCmd
    gpio.o(i.MX_KeyInit) refers to stm32f10x_gpio.o(i.GPIO_Init) for GPIO_Init
    usart.o(i.MX_USART1_Init) refers (Special) to use_no_semi_2.o(.text) for __use_no_semihosting
    usart.o(i.MX_USART1_Init) refers to stm32f10x_rcc.o(i.RCC_APB2PeriphClockCmd) for RCC_APB2PeriphClockCmd
    usart.o(i.MX_USART1_Init) refers to stm32f10x_gpio.o(i.GPIO_Init) for GPIO_Init
    usart.o(i.MX_USART1_Init) refers to stm32f10x_usart.o(i.USART_Init) for USART_Init
    usart.o(i.MX_USART1_Init) refers to stm32f10x_usart.o(i.USART_Cmd) for USART_Cmd
    usart.o(i.MX_USART1_Init) refers to stm32f10x_usart.o(i.USART_ITConfig) for USART_ITConfig
    usart.o(i.MX_USART1_Init) refers to misc.o(i.NVIC_Init) for NVIC_Init
    usart.o(i.USART1_IRQHandler) refers (Special) to use_no_semi_2.o(.text) for __use_no_semihosting
    usart.o(i.USART1_IRQHandler) refers to stm32f10x_usart.o(i.USART_GetITStatus) for USART_GetITStatus
    usart.o(i.USART1_IRQHandler) refers to stm32f10x_usart.o(i.USART_ReceiveData) for USART_ReceiveData
    usart.o(i.USART1_IRQHandler) refers to usart.o(.data) for U1Rx_LEN
    usart.o(i.USART1_IRQHandler) refers to usart.o(.bss) for U1Rx_Data
    usart.o(i._sys_exit) refers (Special) to use_no_semi_2.o(.text) for __use_no_semihosting
    usart.o(i.fputc) refers (Special) to use_no_semi_2.o(.text) for __use_no_semihosting
    usart.o(.bss) refers (Special) to use_no_semi_2.o(.text) for __use_no_semihosting
    usart.o(.data) refers (Special) to use_no_semi_2.o(.text) for __use_no_semihosting
    audio_player.o(i.audio_player_debug_progress) refers to _printf_percent.o(.ARM.Collect$$_printf_percent$$00000000) for _printf_percent
    audio_player.o(i.audio_player_debug_progress) refers to _printf_u.o(.ARM.Collect$$_printf_percent$$0000000A) for _printf_u
    audio_player.o(i.audio_player_debug_progress) refers to _printf_dec.o(.text) for _printf_int_dec
    audio_player.o(i.audio_player_debug_progress) refers to noretval__2sprintf.o(.text) for __2sprintf
    audio_player.o(i.audio_player_debug_progress) refers to audio_player.o(.data) for g_audio_debug_enabled
    audio_player.o(i.audio_player_debug_progress) refers to audio_player.o(.bss) for g_stats
    audio_player.o(i.audio_player_debug_scan_filesystem) refers to _printf_percent.o(.ARM.Collect$$_printf_percent$$00000000) for _printf_percent
    audio_player.o(i.audio_player_debug_scan_filesystem) refers to _printf_u.o(.ARM.Collect$$_printf_percent$$0000000A) for _printf_u
    audio_player.o(i.audio_player_debug_scan_filesystem) refers to _printf_s.o(.ARM.Collect$$_printf_percent$$00000014) for _printf_s
    audio_player.o(i.audio_player_debug_scan_filesystem) refers to _printf_dec.o(.text) for _printf_int_dec
    audio_player.o(i.audio_player_debug_scan_filesystem) refers to _printf_str.o(.text) for _printf_str
    audio_player.o(i.audio_player_debug_scan_filesystem) refers to sdcard_stub.o(i.sdcard_stub_read_sector) for sdcard_stub_read_sector
    audio_player.o(i.audio_player_debug_scan_filesystem) refers to audio_player.o(i.audio_player_debug_sector_summary) for audio_player_debug_sector_summary
    audio_player.o(i.audio_player_debug_scan_filesystem) refers to sdcard_stub.o(i.sdcard_stub_last_error_string) for sdcard_stub_last_error_string
    audio_player.o(i.audio_player_debug_scan_filesystem) refers to noretval__2sprintf.o(.text) for __2sprintf
    audio_player.o(i.audio_player_debug_scan_filesystem) refers to audio_player.o(i.audio_player_sector_interesting) for audio_player_sector_interesting
    audio_player.o(i.audio_player_debug_scan_filesystem) refers to audio_player.o(.data) for g_audio_debug_enabled
    audio_player.o(i.audio_player_debug_scan_filesystem) refers to audio_player.o(.constdata) for candidates
    audio_player.o(i.audio_player_debug_scan_filesystem) refers to audio_player.o(.bss) for scan_sector
    audio_player.o(i.audio_player_debug_sector0) refers to _printf_percent.o(.ARM.Collect$$_printf_percent$$00000000) for _printf_percent
    audio_player.o(i.audio_player_debug_sector0) refers to _printf_s.o(.ARM.Collect$$_printf_percent$$00000014) for _printf_s
    audio_player.o(i.audio_player_debug_sector0) refers to _printf_str.o(.text) for _printf_str
    audio_player.o(i.audio_player_debug_sector0) refers to _printf_pad.o(.text) for _printf_pre_padding
    audio_player.o(i.audio_player_debug_sector0) refers to _printf_u.o(.ARM.Collect$$_printf_percent$$0000000A) for _printf_u
    audio_player.o(i.audio_player_debug_sector0) refers to _printf_x.o(.ARM.Collect$$_printf_percent$$0000000C) for _printf_x
    audio_player.o(i.audio_player_debug_sector0) refers to _printf_dec.o(.text) for _printf_int_dec
    audio_player.o(i.audio_player_debug_sector0) refers to _printf_hex_int.o(.text) for _printf_longlong_hex
    audio_player.o(i.audio_player_debug_sector0) refers to sdcard_stub.o(i.sdcard_stub_read_sector) for sdcard_stub_read_sector
    audio_player.o(i.audio_player_debug_sector0) refers to sdcard_stub.o(i.sdcard_stub_last_error_string) for sdcard_stub_last_error_string
    audio_player.o(i.audio_player_debug_sector0) refers to noretval__2sprintf.o(.text) for __2sprintf
    audio_player.o(i.audio_player_debug_sector0) refers to audio_player.o(i.audio_player_ld_dword) for audio_player_ld_dword
    audio_player.o(i.audio_player_debug_sector0) refers to audio_player.o(i.audio_player_debug_scan_filesystem) for audio_player_debug_scan_filesystem
    audio_player.o(i.audio_player_debug_sector0) refers to audio_player.o(.data) for g_audio_debug_enabled
    audio_player.o(i.audio_player_debug_sector0) refers to audio_player.o(.bss) for sector
    audio_player.o(i.audio_player_debug_sector0) refers to audio_player.o(.conststring) for .conststring
    audio_player.o(i.audio_player_debug_sector_summary) refers to _printf_pad.o(.text) for _printf_pre_padding
    audio_player.o(i.audio_player_debug_sector_summary) refers to _printf_percent.o(.ARM.Collect$$_printf_percent$$00000000) for _printf_percent
    audio_player.o(i.audio_player_debug_sector_summary) refers to _printf_u.o(.ARM.Collect$$_printf_percent$$0000000A) for _printf_u
    audio_player.o(i.audio_player_debug_sector_summary) refers to _printf_x.o(.ARM.Collect$$_printf_percent$$0000000C) for _printf_x
    audio_player.o(i.audio_player_debug_sector_summary) refers to _printf_s.o(.ARM.Collect$$_printf_percent$$00000014) for _printf_s
    audio_player.o(i.audio_player_debug_sector_summary) refers to _printf_dec.o(.text) for _printf_int_dec
    audio_player.o(i.audio_player_debug_sector_summary) refers to _printf_hex_int.o(.text) for _printf_longlong_hex
    audio_player.o(i.audio_player_debug_sector_summary) refers to _printf_str.o(.text) for _printf_str
    audio_player.o(i.audio_player_debug_sector_summary) refers to audio_player.o(i.audio_player_sector_has_aa55) for audio_player_sector_has_aa55
    audio_player.o(i.audio_player_debug_sector_summary) refers to audio_player.o(i.audio_player_sector_has_fat_name) for audio_player_sector_has_fat_name
    audio_player.o(i.audio_player_debug_sector_summary) refers to audio_player.o(i.audio_player_sector_has_exfat_name) for audio_player_sector_has_exfat_name
    audio_player.o(i.audio_player_debug_sector_summary) refers to audio_player.o(i.audio_player_ld_dword) for audio_player_ld_dword
    audio_player.o(i.audio_player_debug_sector_summary) refers to noretval__2sprintf.o(.text) for __2sprintf
    audio_player.o(i.audio_player_debug_sector_summary) refers to audio_player.o(.data) for g_audio_debug_enabled
    audio_player.o(i.audio_player_debug_sector_summary) refers to audio_player.o(.conststring) for .conststring
    audio_player.o(i.audio_player_find_first_mp3) refers to audio_player.o(i.audio_player_set_error) for audio_player_set_error
    audio_player.o(i.audio_player_find_first_mp3) refers to pff.o(i.pf_opendir) for pf_opendir
    audio_player.o(i.audio_player_find_first_mp3) refers to pff.o(i.pf_readdir) for pf_readdir
    audio_player.o(i.audio_player_find_first_mp3) refers to audio_player.o(i.audio_player_has_suffix) for audio_player_has_suffix
    audio_player.o(i.audio_player_get_stats) refers to audio_player.o(.bss) for g_stats
    audio_player.o(i.audio_player_init) refers to _printf_percent.o(.ARM.Collect$$_printf_percent$$00000000) for _printf_percent
    audio_player.o(i.audio_player_init) refers to _printf_d.o(.ARM.Collect$$_printf_percent$$00000009) for _printf_d
    audio_player.o(i.audio_player_init) refers to _printf_dec.o(.text) for _printf_int_dec
    audio_player.o(i.audio_player_init) refers to board_audio.o(i.board_audio_init) for board_audio_init
    audio_player.o(i.audio_player_init) refers to audio_player.o(i.audio_player_set_error) for audio_player_set_error
    audio_player.o(i.audio_player_init) refers to sdcard_stub.o(i.sdcard_stub_init) for sdcard_stub_init
    audio_player.o(i.audio_player_init) refers to sdcard_stub.o(i.sdcard_stub_last_error_string) for sdcard_stub_last_error_string
    audio_player.o(i.audio_player_init) refers to pff.o(i.pf_mount) for pf_mount
    audio_player.o(i.audio_player_init) refers to audio_player.o(i.audio_player_debug_sector0) for audio_player_debug_sector0
    audio_player.o(i.audio_player_init) refers to noretval__2sprintf.o(.text) for __2sprintf
    audio_player.o(i.audio_player_init) refers to minimp3_adapter.o(i.mp3dec_init) for mp3dec_init
    audio_player.o(i.audio_player_init) refers to audio_player.o(i.audio_player_reset_stats) for audio_player_reset_stats
    audio_player.o(i.audio_player_init) refers to audio_player.o(.bss) for g_fs
    audio_player.o(i.audio_player_last_error) refers to audio_player.o(.bss) for g_last_error
    audio_player.o(i.audio_player_play_from_sd) refers to audio_player.o(i.audio_player_has_suffix) for audio_player_has_suffix
    audio_player.o(i.audio_player_play_from_sd) refers to audio_player.o(i.audio_player_play_mp3_from_sd) for audio_player_play_mp3_from_sd
    audio_player.o(i.audio_player_play_from_sd) refers to audio_player.o(i.audio_player_set_error) for audio_player_set_error
    audio_player.o(i.audio_player_play_mp3_from_sd) refers to audio_player.o(i.audio_player_reset_stats) for audio_player_reset_stats
    audio_player.o(i.audio_player_play_mp3_from_sd) refers to pff.o(i.pf_open) for pf_open
    audio_player.o(i.audio_player_play_mp3_from_sd) refers to audio_player.o(i.audio_player_set_error) for audio_player_set_error
    audio_player.o(i.audio_player_play_mp3_from_sd) refers to minimp3_adapter.o(i.mp3dec_init) for mp3dec_init
    audio_player.o(i.audio_player_play_mp3_from_sd) refers to pff.o(i.pf_read) for pf_read
    audio_player.o(i.audio_player_play_mp3_from_sd) refers to rt_memclr_w.o(.text) for __aeabi_memclr4
    audio_player.o(i.audio_player_play_mp3_from_sd) refers to minimp3_adapter.o(i.mp3dec_decode_frame) for mp3dec_decode_frame
    audio_player.o(i.audio_player_play_mp3_from_sd) refers to board_audio.o(i.board_audio_set_sample_rate) for board_audio_set_sample_rate
    audio_player.o(i.audio_player_play_mp3_from_sd) refers to board_audio.o(i.board_audio_play_pcm) for board_audio_play_pcm
    audio_player.o(i.audio_player_play_mp3_from_sd) refers to audio_player.o(i.audio_player_debug_progress) for audio_player_debug_progress
    audio_player.o(i.audio_player_play_mp3_from_sd) refers to rt_memmove_v6.o(.text) for __aeabi_memmove
    audio_player.o(i.audio_player_play_mp3_from_sd) refers to audio_player.o(.bss) for g_mp3d
    audio_player.o(i.audio_player_reset_stats) refers to rt_memclr_w.o(.text) for __aeabi_memclr4
    audio_player.o(i.audio_player_reset_stats) refers to audio_player.o(.bss) for g_stats
    audio_player.o(i.audio_player_sector_has_exfat_name) refers to memcmp.o(.text) for memcmp
    audio_player.o(i.audio_player_sector_has_fat_name) refers to memcmp.o(.text) for memcmp
    audio_player.o(i.audio_player_sector_interesting) refers to audio_player.o(i.audio_player_sector_has_aa55) for audio_player_sector_has_aa55
    audio_player.o(i.audio_player_sector_interesting) refers to audio_player.o(i.audio_player_sector_has_fat_name) for audio_player_sector_has_fat_name
    audio_player.o(i.audio_player_sector_interesting) refers to audio_player.o(i.audio_player_sector_has_exfat_name) for audio_player_sector_has_exfat_name
    audio_player.o(i.audio_player_sector_interesting) refers to audio_player.o(i.audio_player_ld_dword) for audio_player_ld_dword
    audio_player.o(i.audio_player_set_debug) refers to audio_player.o(.data) for g_audio_debug_enabled
    audio_player.o(i.audio_player_set_error) refers to audio_player.o(.bss) for g_last_error
    audio_record.o(i.audio_record_demo_once) refers to board_audio.o(i.board_audio_init_record) for board_audio_init_record
    audio_record.o(i.audio_record_demo_once) refers to board_audio.o(i.board_audio_capture_pcm) for board_audio_capture_pcm
    audio_record.o(i.audio_record_demo_once) refers to board_audio.o(i.board_audio_init_playback) for board_audio_init_playback
    audio_record.o(i.audio_record_demo_once) refers to board_audio.o(i.board_audio_play_pcm) for board_audio_play_pcm
    audio_record.o(i.audio_record_demo_once) refers to audio_record.o(.bss) for g_record_debug
    audio_record.o(i.audio_record_get_debug_info) refers to audio_record.o(.bss) for g_record_debug
    board_audio.o(i.audio_delay_ms) refers to delay.o(i.delay_ms) for delay_ms
    board_audio.o(i.board_audio_amp_set) refers to stm32f10x_gpio.o(i.GPIO_ResetBits) for GPIO_ResetBits
    board_audio.o(i.board_audio_amp_set) refers to stm32f10x_gpio.o(i.GPIO_SetBits) for GPIO_SetBits
    board_audio.o(i.board_audio_amp_set) refers to board_audio.o(i.board_audio_capture_debug_regs) for board_audio_capture_debug_regs
    board_audio.o(i.board_audio_amp_set_pin_high) refers to stm32f10x_gpio.o(i.GPIO_SetBits) for GPIO_SetBits
    board_audio.o(i.board_audio_amp_set_pin_high) refers to stm32f10x_gpio.o(i.GPIO_ResetBits) for GPIO_ResetBits
    board_audio.o(i.board_audio_amp_set_pin_high) refers to board_audio.o(i.board_audio_capture_debug_regs) for board_audio_capture_debug_regs
    board_audio.o(i.board_audio_capture_debug_regs) refers to board_audio.o(i.es8311_read_reg) for es8311_read_reg
    board_audio.o(i.board_audio_capture_debug_regs) refers to stm32f10x_gpio.o(i.GPIO_ReadOutputDataBit) for GPIO_ReadOutputDataBit
    board_audio.o(i.board_audio_capture_debug_regs) refers to board_audio.o(.bss) for g_audio_debug
    board_audio.o(i.board_audio_capture_pcm) refers to board_audio.o(i.board_audio_set_error) for board_audio_set_error
    board_audio.o(i.board_audio_capture_pcm) refers to board_audio.o(i.board_audio_read_word) for board_audio_read_word
    board_audio.o(i.board_audio_capture_pcm) refers to board_audio.o(.bss) for g_audio_debug
    board_audio.o(i.board_audio_codec_init_playback) refers to board_audio.o(i.es8311_probe) for es8311_probe
    board_audio.o(i.board_audio_codec_init_playback) refers to board_audio.o(i.es8311_write_reg) for es8311_write_reg
    board_audio.o(i.board_audio_codec_init_playback) refers to board_audio.o(i.audio_delay_ms) for audio_delay_ms
    board_audio.o(i.board_audio_codec_init_playback) refers to board_audio.o(i.board_audio_capture_debug_regs) for board_audio_capture_debug_regs
    board_audio.o(i.board_audio_codec_init_record) refers to board_audio.o(i.es8311_probe) for es8311_probe
    board_audio.o(i.board_audio_codec_init_record) refers to board_audio.o(i.es8311_write_reg) for es8311_write_reg
    board_audio.o(i.board_audio_codec_init_record) refers to board_audio.o(i.board_audio_capture_debug_regs) for board_audio_capture_debug_regs
    board_audio.o(i.board_audio_get_debug_info) refers to board_audio.o(.bss) for g_audio_debug
    board_audio.o(i.board_audio_gpio_init) refers to stm32f10x_rcc.o(i.RCC_APB2PeriphClockCmd) for RCC_APB2PeriphClockCmd
    board_audio.o(i.board_audio_gpio_init) refers to stm32f10x_rcc.o(i.RCC_APB1PeriphClockCmd) for RCC_APB1PeriphClockCmd
    board_audio.o(i.board_audio_gpio_init) refers to stm32f10x_gpio.o(i.GPIO_PinRemapConfig) for GPIO_PinRemapConfig
    board_audio.o(i.board_audio_gpio_init) refers to stm32f10x_gpio.o(i.GPIO_Init) for GPIO_Init
    board_audio.o(i.board_audio_gpio_init) refers to board_audio.o(i.i2c_sda_high) for i2c_sda_high
    board_audio.o(i.board_audio_gpio_init) refers to board_audio.o(i.i2c_scl_high) for i2c_scl_high
    board_audio.o(i.board_audio_gpio_init) refers to board_audio.o(i.audio_delay_ms) for audio_delay_ms
    board_audio.o(i.board_audio_gpio_init) refers to stm32f10x_gpio.o(i.GPIO_ResetBits) for GPIO_ResetBits
    board_audio.o(i.board_audio_i2s_init_rx) refers to stm32f10x_spi.o(i.SPI_I2S_DeInit) for SPI_I2S_DeInit
    board_audio.o(i.board_audio_i2s_init_rx) refers to stm32f10x_spi.o(i.I2S_Init) for I2S_Init
    board_audio.o(i.board_audio_i2s_init_rx) refers to stm32f10x_spi.o(i.I2S_Cmd) for I2S_Cmd
    board_audio.o(i.board_audio_i2s_init_tx) refers to board_audio.o(i.board_audio_i2s_init_tx_rate) for board_audio_i2s_init_tx_rate
    board_audio.o(i.board_audio_i2s_init_tx_rate) refers to stm32f10x_spi.o(i.SPI_I2S_DeInit) for SPI_I2S_DeInit
    board_audio.o(i.board_audio_i2s_init_tx_rate) refers to board_audio.o(i.board_audio_i2s_freq) for board_audio_i2s_freq
    board_audio.o(i.board_audio_i2s_init_tx_rate) refers to stm32f10x_spi.o(i.I2S_Init) for I2S_Init
    board_audio.o(i.board_audio_i2s_init_tx_rate) refers to stm32f10x_spi.o(i.I2S_Cmd) for I2S_Cmd
    board_audio.o(i.board_audio_i2s_init_tx_rate) refers to board_audio.o(.bss) for g_audio_debug
    board_audio.o(i.board_audio_init) refers to board_audio.o(i.board_audio_init_playback) for board_audio_init_playback
    board_audio.o(i.board_audio_init_playback) refers to board_audio.o(i.board_audio_gpio_init) for board_audio_gpio_init
    board_audio.o(i.board_audio_init_playback) refers to board_audio.o(i.board_audio_reset_debug) for board_audio_reset_debug
    board_audio.o(i.board_audio_init_playback) refers to board_audio.o(i.audio_delay_ms) for audio_delay_ms
    board_audio.o(i.board_audio_init_playback) refers to board_audio.o(i.board_audio_i2s_init_tx) for board_audio_i2s_init_tx
    board_audio.o(i.board_audio_init_playback) refers to board_audio.o(i.board_audio_codec_init_playback) for board_audio_codec_init_playback
    board_audio.o(i.board_audio_init_playback) refers to board_audio.o(i.board_audio_set_error) for board_audio_set_error
    board_audio.o(i.board_audio_init_playback) refers to stm32f10x_gpio.o(i.GPIO_ResetBits) for GPIO_ResetBits
    board_audio.o(i.board_audio_init_record) refers to board_audio.o(i.board_audio_gpio_init) for board_audio_gpio_init
    board_audio.o(i.board_audio_init_record) refers to board_audio.o(i.board_audio_reset_debug) for board_audio_reset_debug
    board_audio.o(i.board_audio_init_record) refers to board_audio.o(i.audio_delay_ms) for audio_delay_ms
    board_audio.o(i.board_audio_init_record) refers to board_audio.o(i.board_audio_i2s_init_rx) for board_audio_i2s_init_rx
    board_audio.o(i.board_audio_init_record) refers to board_audio.o(i.board_audio_codec_init_record) for board_audio_codec_init_record
    board_audio.o(i.board_audio_init_record) refers to board_audio.o(i.board_audio_set_error) for board_audio_set_error
    board_audio.o(i.board_audio_init_record) refers to stm32f10x_gpio.o(i.GPIO_ResetBits) for GPIO_ResetBits
    board_audio.o(i.board_audio_play_pcm) refers to board_audio.o(i.board_audio_set_error) for board_audio_set_error
    board_audio.o(i.board_audio_play_pcm) refers to stm32f10x_gpio.o(i.GPIO_ReadOutputDataBit) for GPIO_ReadOutputDataBit
    board_audio.o(i.board_audio_play_pcm) refers to board_audio.o(i.board_audio_apply_gain) for board_audio_apply_gain
    board_audio.o(i.board_audio_play_pcm) refers to board_audio.o(i.board_audio_write_frame) for board_audio_write_frame
    board_audio.o(i.board_audio_play_pcm) refers to board_audio.o(.bss) for g_audio_debug
    board_audio.o(i.board_audio_play_test_tone) refers to board_audio.o(i.board_audio_apply_gain) for board_audio_apply_gain
    board_audio.o(i.board_audio_play_test_tone) refers to board_audio.o(i.board_audio_write_frame) for board_audio_write_frame
    board_audio.o(i.board_audio_play_test_tone) refers to board_audio.o(.constdata) for audio_test_wave
    board_audio.o(i.board_audio_read_word) refers to stm32f10x_spi.o(i.SPI_I2S_GetFlagStatus) for SPI_I2S_GetFlagStatus
    board_audio.o(i.board_audio_read_word) refers to stm32f10x_spi.o(i.SPI_I2S_ReceiveData) for SPI_I2S_ReceiveData
    board_audio.o(i.board_audio_reset_debug) refers to rt_memclr_w.o(.text) for __aeabi_memclr4
    board_audio.o(i.board_audio_reset_debug) refers to board_audio.o(.bss) for g_audio_debug
    board_audio.o(i.board_audio_set_error) refers to board_audio.o(.bss) for g_audio_debug
    board_audio.o(i.board_audio_set_sample_rate) refers to board_audio.o(i.board_audio_i2s_init_tx_rate) for board_audio_i2s_init_tx_rate
    board_audio.o(i.board_audio_set_sample_rate) refers to board_audio.o(.bss) for g_audio_debug
    board_audio.o(i.board_audio_write_frame) refers to board_audio.o(i.board_audio_write_word) for board_audio_write_word
    board_audio.o(i.board_audio_write_frame) refers to board_audio.o(.bss) for g_audio_debug
    board_audio.o(i.board_audio_write_word) refers to stm32f10x_spi.o(i.SPI_I2S_GetFlagStatus) for SPI_I2S_GetFlagStatus
    board_audio.o(i.board_audio_write_word) refers to stm32f10x_spi.o(i.SPI_I2S_SendData) for SPI_I2S_SendData
    board_audio.o(i.es8311_probe) refers to board_audio.o(i.es8311_probe_addr) for es8311_probe_addr
    board_audio.o(i.es8311_probe) refers to board_audio.o(.data) for g_es8311_addr_write
    board_audio.o(i.es8311_probe) refers to board_audio.o(.bss) for g_audio_debug
    board_audio.o(i.es8311_probe_addr) refers to board_audio.o(i.i2c_stop) for i2c_stop
    board_audio.o(i.es8311_probe_addr) refers to board_audio.o(i.es8311_write_reg_to) for es8311_write_reg_to
    board_audio.o(i.es8311_read_reg) refers to board_audio.o(i.i2c_start) for i2c_start
    board_audio.o(i.es8311_read_reg) refers to board_audio.o(i.i2c_write_byte) for i2c_write_byte
    board_audio.o(i.es8311_read_reg) refers to board_audio.o(i.i2c_read_byte) for i2c_read_byte
    board_audio.o(i.es8311_read_reg) refers to board_audio.o(i.i2c_stop) for i2c_stop
    board_audio.o(i.es8311_read_reg) refers to board_audio.o(.data) for g_es8311_addr_write
    board_audio.o(i.es8311_read_reg) refers to board_audio.o(.bss) for g_audio_debug
    board_audio.o(i.es8311_write_reg) refers to board_audio.o(i.es8311_write_reg_to) for es8311_write_reg_to
    board_audio.o(i.es8311_write_reg) refers to board_audio.o(.data) for g_es8311_addr_write
    board_audio.o(i.es8311_write_reg) refers to board_audio.o(.bss) for g_audio_debug
    board_audio.o(i.es8311_write_reg_to) refers to board_audio.o(i.i2c_start) for i2c_start
    board_audio.o(i.es8311_write_reg_to) refers to board_audio.o(i.i2c_write_byte) for i2c_write_byte
    board_audio.o(i.es8311_write_reg_to) refers to board_audio.o(i.i2c_stop) for i2c_stop
    board_audio.o(i.i2c_read_byte) refers to board_audio.o(i.i2c_sda_high) for i2c_sda_high
    board_audio.o(i.i2c_read_byte) refers to board_audio.o(i.i2c_scl_high) for i2c_scl_high
    board_audio.o(i.i2c_read_byte) refers to board_audio.o(i.i2c_sda_read) for i2c_sda_read
    board_audio.o(i.i2c_read_byte) refers to board_audio.o(i.i2c_scl_low) for i2c_scl_low
    board_audio.o(i.i2c_read_byte) refers to board_audio.o(i.i2c_sda_low) for i2c_sda_low
    board_audio.o(i.i2c_scl_high) refers to stm32f10x_gpio.o(i.GPIO_SetBits) for GPIO_SetBits
    board_audio.o(i.i2c_scl_high) refers to board_audio.o(i.audio_delay_short) for audio_delay_short
    board_audio.o(i.i2c_scl_low) refers to stm32f10x_gpio.o(i.GPIO_ResetBits) for GPIO_ResetBits
    board_audio.o(i.i2c_scl_low) refers to board_audio.o(i.audio_delay_short) for audio_delay_short
    board_audio.o(i.i2c_sda_high) refers to stm32f10x_gpio.o(i.GPIO_SetBits) for GPIO_SetBits
    board_audio.o(i.i2c_sda_high) refers to board_audio.o(i.audio_delay_short) for audio_delay_short
    board_audio.o(i.i2c_sda_low) refers to stm32f10x_gpio.o(i.GPIO_ResetBits) for GPIO_ResetBits
    board_audio.o(i.i2c_sda_low) refers to board_audio.o(i.audio_delay_short) for audio_delay_short
    board_audio.o(i.i2c_sda_read) refers to stm32f10x_gpio.o(i.GPIO_ReadInputDataBit) for GPIO_ReadInputDataBit
    board_audio.o(i.i2c_start) refers to board_audio.o(i.i2c_sda_high) for i2c_sda_high
    board_audio.o(i.i2c_start) refers to board_audio.o(i.i2c_scl_high) for i2c_scl_high
    board_audio.o(i.i2c_start) refers to board_audio.o(i.i2c_sda_low) for i2c_sda_low
    board_audio.o(i.i2c_start) refers to board_audio.o(i.i2c_scl_low) for i2c_scl_low
    board_audio.o(i.i2c_stop) refers to board_audio.o(i.i2c_sda_low) for i2c_sda_low
    board_audio.o(i.i2c_stop) refers to board_audio.o(i.i2c_scl_high) for i2c_scl_high
    board_audio.o(i.i2c_stop) refers to board_audio.o(i.i2c_sda_high) for i2c_sda_high
    board_audio.o(i.i2c_write_byte) refers to board_audio.o(i.i2c_sda_high) for i2c_sda_high
    board_audio.o(i.i2c_write_byte) refers to board_audio.o(i.i2c_sda_low) for i2c_sda_low
    board_audio.o(i.i2c_write_byte) refers to board_audio.o(i.i2c_scl_high) for i2c_scl_high
    board_audio.o(i.i2c_write_byte) refers to board_audio.o(i.i2c_scl_low) for i2c_scl_low
    board_audio.o(i.i2c_write_byte) refers to board_audio.o(i.i2c_sda_read) for i2c_sda_read
    sdcard_stub.o(i.sd_acmd41_init) refers to sdcard_stub.o(i.sd_send_command) for sd_send_command
    sdcard_stub.o(i.sd_acmd41_init) refers to sdcard_stub.o(i.sd_wait_cmd_response) for sd_wait_cmd_response
    sdcard_stub.o(i.sd_acmd41_init) refers to stm32f10x_sdio.o(i.SDIO_GetResponse) for SDIO_GetResponse
    sdcard_stub.o(i.sd_acmd41_init) refers to sdcard_stub.o(i.sd_delay) for sd_delay
    sdcard_stub.o(i.sd_acmd41_init) refers to sdcard_stub.o(.data) for g_sd_v2
    sdcard_stub.o(i.sd_clear_data_path) refers to stm32f10x_sdio.o(i.SDIO_DataConfig) for SDIO_DataConfig
    sdcard_stub.o(i.sd_clear_data_path) refers to stm32f10x_sdio.o(i.SDIO_ReadData) for SDIO_ReadData
    sdcard_stub.o(i.sd_clear_data_path) refers to stm32f10x_sdio.o(i.SDIO_GetFlagStatus) for SDIO_GetFlagStatus
    sdcard_stub.o(i.sd_clear_data_path) refers to stm32f10x_sdio.o(i.SDIO_ClearFlag) for SDIO_ClearFlag
    sdcard_stub.o(i.sd_cmd0) refers to sdcard_stub.o(i.sd_send_command) for sd_send_command
    sdcard_stub.o(i.sd_cmd0) refers to sdcard_stub.o(i.sd_wait_cmd_no_response) for sd_wait_cmd_no_response
    sdcard_stub.o(i.sd_cmd2) refers to sdcard_stub.o(i.sd_send_command) for sd_send_command
    sdcard_stub.o(i.sd_cmd2) refers to sdcard_stub.o(i.sd_wait_cmd_response) for sd_wait_cmd_response
    sdcard_stub.o(i.sd_cmd8) refers to sdcard_stub.o(i.sd_send_command) for sd_send_command
    sdcard_stub.o(i.sd_cmd8) refers to sdcard_stub.o(i.sd_wait_cmd_response) for sd_wait_cmd_response
    sdcard_stub.o(i.sd_cmd8) refers to stm32f10x_sdio.o(i.SDIO_GetResponse) for SDIO_GetResponse
    sdcard_stub.o(i.sd_cmd8) refers to sdcard_stub.o(.data) for g_sd_last_error
    sdcard_stub.o(i.sd_debug_dump_probe) refers to _printf_pad.o(.text) for _printf_pre_padding
    sdcard_stub.o(i.sd_debug_dump_probe) refers to _printf_percent.o(.ARM.Collect$$_printf_percent$$00000000) for _printf_percent
    sdcard_stub.o(i.sd_debug_dump_probe) refers to _printf_d.o(.ARM.Collect$$_printf_percent$$00000009) for _printf_d
    sdcard_stub.o(i.sd_debug_dump_probe) refers to _printf_x.o(.ARM.Collect$$_printf_percent$$0000000C) for _printf_x
    sdcard_stub.o(i.sd_debug_dump_probe) refers to _printf_s.o(.ARM.Collect$$_printf_percent$$00000014) for _printf_s
    sdcard_stub.o(i.sd_debug_dump_probe) refers to _printf_dec.o(.text) for _printf_int_dec
    sdcard_stub.o(i.sd_debug_dump_probe) refers to _printf_hex_int.o(.text) for _printf_longlong_hex
    sdcard_stub.o(i.sd_debug_dump_probe) refers to _printf_str.o(.text) for _printf_str
    sdcard_stub.o(i.sd_debug_dump_probe) refers to noretval__2sprintf.o(.text) for __2sprintf
    sdcard_stub.o(i.sd_debug_dump_probe) refers to sdcard_stub.o(.data) for g_sd_debug_enabled
    sdcard_stub.o(i.sd_debug_dump_probe) refers to sdcard_stub.o(.conststring) for .conststring
    sdcard_stub.o(i.sd_debug_dump_regs) refers to _printf_pad.o(.text) for _printf_pre_padding
    sdcard_stub.o(i.sd_debug_dump_regs) refers to _printf_percent.o(.ARM.Collect$$_printf_percent$$00000000) for _printf_percent
    sdcard_stub.o(i.sd_debug_dump_regs) refers to _printf_d.o(.ARM.Collect$$_printf_percent$$00000009) for _printf_d
    sdcard_stub.o(i.sd_debug_dump_regs) refers to _printf_u.o(.ARM.Collect$$_printf_percent$$0000000A) for _printf_u
    sdcard_stub.o(i.sd_debug_dump_regs) refers to _printf_x.o(.ARM.Collect$$_printf_percent$$0000000C) for _printf_x
    sdcard_stub.o(i.sd_debug_dump_regs) refers to _printf_s.o(.ARM.Collect$$_printf_percent$$00000014) for _printf_s
    sdcard_stub.o(i.sd_debug_dump_regs) refers to _printf_dec.o(.text) for _printf_int_dec
    sdcard_stub.o(i.sd_debug_dump_regs) refers to _printf_hex_int.o(.text) for _printf_longlong_hex
    sdcard_stub.o(i.sd_debug_dump_regs) refers to _printf_str.o(.text) for _printf_str
    sdcard_stub.o(i.sd_debug_dump_regs) refers to noretval__2sprintf.o(.text) for __2sprintf
    sdcard_stub.o(i.sd_debug_dump_regs) refers to sdcard_stub.o(.data) for g_sd_debug_enabled
    sdcard_stub.o(i.sd_debug_dump_regs) refers to sdcard_stub.o(.conststring) for .conststring
    sdcard_stub.o(i.sd_debug_dump_sector_prefix) refers to _printf_pad.o(.text) for _printf_pre_padding
    sdcard_stub.o(i.sd_debug_dump_sector_prefix) refers to _printf_percent.o(.ARM.Collect$$_printf_percent$$00000000) for _printf_percent
    sdcard_stub.o(i.sd_debug_dump_sector_prefix) refers to _printf_x.o(.ARM.Collect$$_printf_percent$$0000000C) for _printf_x
    sdcard_stub.o(i.sd_debug_dump_sector_prefix) refers to _printf_hex_int.o(.text) for _printf_longlong_hex
    sdcard_stub.o(i.sd_debug_dump_sector_prefix) refers to noretval__2sprintf.o(.text) for __2sprintf
    sdcard_stub.o(i.sd_debug_dump_sector_prefix) refers to sdcard_stub.o(.data) for g_sd_debug_enabled
    sdcard_stub.o(i.sd_debug_dump_sector_prefix) refers to sdcard_stub.o(.conststring) for .conststring
    sdcard_stub.o(i.sd_debug_print) refers to sdcard_stub.o(.data) for g_sd_debug_enabled
    sdcard_stub.o(i.sd_debug_probe_addresses) refers to sdcard_stub.o(i.sd_read_raw_address_debug) for sd_read_raw_address_debug
    sdcard_stub.o(i.sd_debug_probe_addresses) refers to sdcard_stub.o(i.sd_debug_dump_probe) for sd_debug_dump_probe
    sdcard_stub.o(i.sd_debug_probe_addresses) refers to sdcard_stub.o(.data) for probed
    sdcard_stub.o(i.sd_debug_probe_addresses) refers to sdcard_stub.o(.bss) for probe_sector
    sdcard_stub.o(i.sd_debug_sector0) refers to _printf_pad.o(.text) for _printf_pre_padding
    sdcard_stub.o(i.sd_debug_sector0) refers to _printf_percent.o(.ARM.Collect$$_printf_percent$$00000000) for _printf_percent
    sdcard_stub.o(i.sd_debug_sector0) refers to _printf_u.o(.ARM.Collect$$_printf_percent$$0000000A) for _printf_u
    sdcard_stub.o(i.sd_debug_sector0) refers to _printf_x.o(.ARM.Collect$$_printf_percent$$0000000C) for _printf_x
    sdcard_stub.o(i.sd_debug_sector0) refers to _printf_dec.o(.text) for _printf_int_dec
    sdcard_stub.o(i.sd_debug_sector0) refers to _printf_hex_int.o(.text) for _printf_longlong_hex
    sdcard_stub.o(i.sd_debug_sector0) refers to sdcard_stub.o(i.sd_ld_dword) for sd_ld_dword
    sdcard_stub.o(i.sd_debug_sector0) refers to noretval__2sprintf.o(.text) for __2sprintf
    sdcard_stub.o(i.sd_debug_sector0) refers to sdcard_stub.o(i.sd_debug_dump_sector_prefix) for sd_debug_dump_sector_prefix
    sdcard_stub.o(i.sd_debug_sector0) refers to sdcard_stub.o(i.sd_debug_dump_regs) for sd_debug_dump_regs
    sdcard_stub.o(i.sd_debug_sector0) refers to sdcard_stub.o(i.sd_debug_probe_addresses) for sd_debug_probe_addresses
    sdcard_stub.o(i.sd_debug_sector0) refers to sdcard_stub.o(.data) for g_sd_debug_enabled
    sdcard_stub.o(i.sd_debug_sector0) refers to sdcard_stub.o(.conststring) for .conststring
    sdcard_stub.o(i.sd_debug_step) refers to _printf_pad.o(.text) for _printf_pre_padding
    sdcard_stub.o(i.sd_debug_step) refers to _printf_percent.o(.ARM.Collect$$_printf_percent$$00000000) for _printf_percent
    sdcard_stub.o(i.sd_debug_step) refers to _printf_d.o(.ARM.Collect$$_printf_percent$$00000009) for _printf_d
    sdcard_stub.o(i.sd_debug_step) refers to _printf_u.o(.ARM.Collect$$_printf_percent$$0000000A) for _printf_u
    sdcard_stub.o(i.sd_debug_step) refers to _printf_x.o(.ARM.Collect$$_printf_percent$$0000000C) for _printf_x
    sdcard_stub.o(i.sd_debug_step) refers to _printf_s.o(.ARM.Collect$$_printf_percent$$00000014) for _printf_s
    sdcard_stub.o(i.sd_debug_step) refers to _printf_dec.o(.text) for _printf_int_dec
    sdcard_stub.o(i.sd_debug_step) refers to _printf_hex_int.o(.text) for _printf_longlong_hex
    sdcard_stub.o(i.sd_debug_step) refers to _printf_str.o(.text) for _printf_str
    sdcard_stub.o(i.sd_debug_step) refers to noretval__2sprintf.o(.text) for __2sprintf
    sdcard_stub.o(i.sd_debug_step) refers to sdcard_stub.o(.data) for g_sd_debug_enabled
    sdcard_stub.o(i.sd_get_rca) refers to sdcard_stub.o(i.sd_send_command) for sd_send_command
    sdcard_stub.o(i.sd_get_rca) refers to sdcard_stub.o(i.sd_wait_cmd_response) for sd_wait_cmd_response
    sdcard_stub.o(i.sd_get_rca) refers to stm32f10x_sdio.o(i.SDIO_GetResponse) for SDIO_GetResponse
    sdcard_stub.o(i.sd_get_rca) refers to sdcard_stub.o(.data) for g_sd_rca
    sdcard_stub.o(i.sd_gpio_init) refers to stm32f10x_rcc.o(i.RCC_APB2PeriphClockCmd) for RCC_APB2PeriphClockCmd
    sdcard_stub.o(i.sd_gpio_init) refers to stm32f10x_rcc.o(i.RCC_AHBPeriphClockCmd) for RCC_AHBPeriphClockCmd
    sdcard_stub.o(i.sd_gpio_init) refers to stm32f10x_gpio.o(i.GPIO_Init) for GPIO_Init
    sdcard_stub.o(i.sd_read_data_polling) refers to stm32f10x_sdio.o(i.SDIO_ClearFlag) for SDIO_ClearFlag
    sdcard_stub.o(i.sd_read_data_polling) refers to stm32f10x_sdio.o(i.SDIO_ReadData) for SDIO_ReadData
    sdcard_stub.o(i.sd_read_data_polling) refers to sdcard_stub.o(.data) for g_sd_last_sta
    sdcard_stub.o(i.sd_read_raw_address_debug) refers to sdcard_stub.o(i.sd_clear_data_path) for sd_clear_data_path
    sdcard_stub.o(i.sd_read_raw_address_debug) refers to stm32f10x_sdio.o(i.SDIO_DataConfig) for SDIO_DataConfig
    sdcard_stub.o(i.sd_read_raw_address_debug) refers to sdcard_stub.o(i.sd_send_command) for sd_send_command
    sdcard_stub.o(i.sd_read_raw_address_debug) refers to sdcard_stub.o(i.sd_wait_cmd_response) for sd_wait_cmd_response
    sdcard_stub.o(i.sd_read_raw_address_debug) refers to sdcard_stub.o(i.sd_read_data_polling) for sd_read_data_polling
    sdcard_stub.o(i.sd_sdio_clock_config) refers to stm32f10x_sdio.o(i.SDIO_Init) for SDIO_Init
    sdcard_stub.o(i.sd_sdio_clock_config) refers to stm32f10x_sdio.o(i.SDIO_SetPowerState) for SDIO_SetPowerState
    sdcard_stub.o(i.sd_sdio_clock_config) refers to stm32f10x_sdio.o(i.SDIO_ClockCmd) for SDIO_ClockCmd
    sdcard_stub.o(i.sd_sdio_clock_config) refers to sdcard_stub.o(i.sd_delay) for sd_delay
    sdcard_stub.o(i.sd_select_card) refers to sdcard_stub.o(i.sd_send_command) for sd_send_command
    sdcard_stub.o(i.sd_select_card) refers to sdcard_stub.o(i.sd_wait_cmd_response) for sd_wait_cmd_response
    sdcard_stub.o(i.sd_select_card) refers to sdcard_stub.o(.data) for g_sd_rca
    sdcard_stub.o(i.sd_send_command) refers to stm32f10x_sdio.o(i.SDIO_ClearFlag) for SDIO_ClearFlag
    sdcard_stub.o(i.sd_send_command) refers to stm32f10x_sdio.o(i.SDIO_SendCommand) for SDIO_SendCommand
    sdcard_stub.o(i.sd_send_command) refers to sdcard_stub.o(.data) for g_sd_last_sta
    sdcard_stub.o(i.sd_set_block_length) refers to sdcard_stub.o(i.sd_send_command) for sd_send_command
    sdcard_stub.o(i.sd_set_block_length) refers to sdcard_stub.o(i.sd_wait_cmd_response) for sd_wait_cmd_response
    sdcard_stub.o(i.sd_set_block_length) refers to sdcard_stub.o(.data) for g_sd_high_capacity
    sdcard_stub.o(i.sd_set_bus_width_4bit) refers to sdcard_stub.o(i.sd_debug_print) for sd_debug_print
    sdcard_stub.o(i.sd_wait_cmd_no_response) refers to stm32f10x_sdio.o(i.SDIO_ClearFlag) for SDIO_ClearFlag
    sdcard_stub.o(i.sd_wait_cmd_no_response) refers to stm32f10x_sdio.o(i.SDIO_GetCommandResponse) for SDIO_GetCommandResponse
    sdcard_stub.o(i.sd_wait_cmd_no_response) refers to stm32f10x_sdio.o(i.SDIO_GetResponse) for SDIO_GetResponse
    sdcard_stub.o(i.sd_wait_cmd_no_response) refers to sdcard_stub.o(.data) for g_sd_last_sta
    sdcard_stub.o(i.sd_wait_cmd_response) refers to stm32f10x_sdio.o(i.SDIO_ClearFlag) for SDIO_ClearFlag
    sdcard_stub.o(i.sd_wait_cmd_response) refers to stm32f10x_sdio.o(i.SDIO_GetCommandResponse) for SDIO_GetCommandResponse
    sdcard_stub.o(i.sd_wait_cmd_response) refers to stm32f10x_sdio.o(i.SDIO_GetResponse) for SDIO_GetResponse
    sdcard_stub.o(i.sd_wait_cmd_response) refers to sdcard_stub.o(.data) for g_sd_last_sta
    sdcard_stub.o(i.sdcard_stub_init) refers to sdcard_stub.o(i.sd_debug_print) for sd_debug_print
    sdcard_stub.o(i.sdcard_stub_init) refers to stm32f10x_sdio.o(i.SDIO_DeInit) for SDIO_DeInit
    sdcard_stub.o(i.sdcard_stub_init) refers to sdcard_stub.o(i.sd_gpio_init) for sd_gpio_init
    sdcard_stub.o(i.sdcard_stub_init) refers to sdcard_stub.o(i.sd_sdio_clock_config) for sd_sdio_clock_config
    sdcard_stub.o(i.sdcard_stub_init) refers to sdcard_stub.o(i.sd_cmd0) for sd_cmd0
    sdcard_stub.o(i.sdcard_stub_init) refers to sdcard_stub.o(i.sd_debug_step) for sd_debug_step
    sdcard_stub.o(i.sdcard_stub_init) refers to sdcard_stub.o(i.sd_cmd8) for sd_cmd8
    sdcard_stub.o(i.sdcard_stub_init) refers to sdcard_stub.o(i.sd_acmd41_init) for sd_acmd41_init
    sdcard_stub.o(i.sdcard_stub_init) refers to sdcard_stub.o(i.sd_cmd2) for sd_cmd2
    sdcard_stub.o(i.sdcard_stub_init) refers to sdcard_stub.o(i.sd_get_rca) for sd_get_rca
    sdcard_stub.o(i.sdcard_stub_init) refers to sdcard_stub.o(i.sd_select_card) for sd_select_card
    sdcard_stub.o(i.sdcard_stub_init) refers to sdcard_stub.o(i.sd_set_block_length) for sd_set_block_length
    sdcard_stub.o(i.sdcard_stub_init) refers to sdcard_stub.o(i.sd_set_bus_width_4bit) for sd_set_bus_width_4bit
    sdcard_stub.o(i.sdcard_stub_init) refers to sdcard_stub.o(.data) for g_sd_ready
    sdcard_stub.o(i.sdcard_stub_is_ready) refers to sdcard_stub.o(.data) for g_sd_ready
    sdcard_stub.o(i.sdcard_stub_last_error_string) refers to sdcard_stub.o(.data) for g_sd_last_error
    sdcard_stub.o(i.sdcard_stub_read_sector) refers to _printf_pad.o(.text) for _printf_pre_padding
    sdcard_stub.o(i.sdcard_stub_read_sector) refers to _printf_percent.o(.ARM.Collect$$_printf_percent$$00000000) for _printf_percent
    sdcard_stub.o(i.sdcard_stub_read_sector) refers to _printf_d.o(.ARM.Collect$$_printf_percent$$00000009) for _printf_d
    sdcard_stub.o(i.sdcard_stub_read_sector) refers to _printf_u.o(.ARM.Collect$$_printf_percent$$0000000A) for _printf_u
    sdcard_stub.o(i.sdcard_stub_read_sector) refers to _printf_x.o(.ARM.Collect$$_printf_percent$$0000000C) for _printf_x
    sdcard_stub.o(i.sdcard_stub_read_sector) refers to _printf_s.o(.ARM.Collect$$_printf_percent$$00000014) for _printf_s
    sdcard_stub.o(i.sdcard_stub_read_sector) refers to _printf_dec.o(.text) for _printf_int_dec
    sdcard_stub.o(i.sdcard_stub_read_sector) refers to _printf_hex_int.o(.text) for _printf_longlong_hex
    sdcard_stub.o(i.sdcard_stub_read_sector) refers to _printf_str.o(.text) for _printf_str
    sdcard_stub.o(i.sdcard_stub_read_sector) refers to sdcard_stub.o(i.sd_clear_data_path) for sd_clear_data_path
    sdcard_stub.o(i.sdcard_stub_read_sector) refers to stm32f10x_sdio.o(i.SDIO_DataConfig) for SDIO_DataConfig
    sdcard_stub.o(i.sdcard_stub_read_sector) refers to sdcard_stub.o(i.sd_send_command) for sd_send_command
    sdcard_stub.o(i.sdcard_stub_read_sector) refers to sdcard_stub.o(i.sd_wait_cmd_response) for sd_wait_cmd_response
    sdcard_stub.o(i.sdcard_stub_read_sector) refers to sdcard_stub.o(i.sd_read_data_polling) for sd_read_data_polling
    sdcard_stub.o(i.sdcard_stub_read_sector) refers to sdcard_stub.o(i.sd_debug_sector0) for sd_debug_sector0
    sdcard_stub.o(i.sdcard_stub_read_sector) refers to noretval__2sprintf.o(.text) for __2sprintf
    sdcard_stub.o(i.sdcard_stub_read_sector) refers to sdcard_stub.o(.data) for g_sd_high_capacity
    sdcard_stub.o(i.sdcard_stub_read_sector) refers to sdcard_stub.o(.conststring) for .conststring
    sdcard_stub.o(i.sdcard_stub_set_debug) refers to sdcard_stub.o(.data) for g_sd_debug_enabled
    sdcard_stub.o(.data) refers to sdcard_stub.o(.conststring) for .conststring
    diskio.o(i.disk_initialize) refers to sdcard_stub.o(i.sdcard_stub_is_ready) for sdcard_stub_is_ready
    diskio.o(i.disk_initialize) refers to sdcard_stub.o(i.sdcard_stub_init) for sdcard_stub_init
    diskio.o(i.disk_readp) refers to sdcard_stub.o(i.sdcard_stub_is_ready) for sdcard_stub_is_ready
    diskio.o(i.disk_readp) refers to sdcard_stub.o(i.sdcard_stub_read_sector) for sdcard_stub_read_sector
    diskio.o(i.disk_readp) refers to diskio.o(.bss) for sector_buf
    pff.o(i.check_fs) refers to diskio.o(i.disk_readp) for disk_readp
    pff.o(i.check_fs) refers to pff.o(i.ld_word) for ld_word
    pff.o(i.clust2sect) refers to pff.o(.data) for FatFs
    pff.o(i.create_name) refers to pff.o(i.mem_set) for mem_set
    pff.o(i.create_name) refers to pff.o(.constdata) for cvt
    pff.o(i.dir_find) refers to pff.o(i.dir_rewind) for dir_rewind
    pff.o(i.dir_find) refers to diskio.o(i.disk_readp) for disk_readp
    pff.o(i.dir_find) refers to pff.o(i.mem_cmp) for mem_cmp
    pff.o(i.dir_find) refers to pff.o(i.dir_next) for dir_next
    pff.o(i.dir_next) refers to pff.o(i.get_fat) for get_fat
    pff.o(i.dir_next) refers to pff.o(i.clust2sect) for clust2sect
    pff.o(i.dir_next) refers to pff.o(.data) for FatFs
    pff.o(i.dir_read) refers to diskio.o(i.disk_readp) for disk_readp
    pff.o(i.dir_read) refers to pff.o(i.dir_next) for dir_next
    pff.o(i.dir_rewind) refers to pff.o(i.clust2sect) for clust2sect
    pff.o(i.dir_rewind) refers to pff.o(.data) for FatFs
    pff.o(i.follow_path) refers to pff.o(i.dir_rewind) for dir_rewind
    pff.o(i.follow_path) refers to pff.o(i.create_name) for create_name
    pff.o(i.follow_path) refers to pff.o(i.dir_find) for dir_find
    pff.o(i.follow_path) refers to pff.o(i.get_clust) for get_clust
    pff.o(i.get_clust) refers to pff.o(i.ld_word) for ld_word
    pff.o(i.get_clust) refers to pff.o(.data) for FatFs
    pff.o(i.get_fat) refers to diskio.o(i.disk_readp) for disk_readp
    pff.o(i.get_fat) refers to pff.o(i.ld_word) for ld_word
    pff.o(i.get_fat) refers to pff.o(i.ld_dword) for ld_dword
    pff.o(i.get_fat) refers to pff.o(.data) for FatFs
    pff.o(i.get_fileinfo) refers to pff.o(i.ld_dword) for ld_dword
    pff.o(i.get_fileinfo) refers to pff.o(i.ld_word) for ld_word
    pff.o(i.pf_mount) refers to diskio.o(i.disk_initialize) for disk_initialize
    pff.o(i.pf_mount) refers to pff.o(i.check_fs) for check_fs
    pff.o(i.pf_mount) refers to diskio.o(i.disk_readp) for disk_readp
    pff.o(i.pf_mount) refers to pff.o(i.ld_dword) for ld_dword
    pff.o(i.pf_mount) refers to pff.o(i.ld_word) for ld_word
    pff.o(i.pf_mount) refers to pff.o(.data) for FatFs
    pff.o(i.pf_open) refers to pff.o(i.follow_path) for follow_path
    pff.o(i.pf_open) refers to pff.o(i.get_clust) for get_clust
    pff.o(i.pf_open) refers to pff.o(i.ld_dword) for ld_dword
    pff.o(i.pf_open) refers to pff.o(.data) for FatFs
    pff.o(i.pf_opendir) refers to pff.o(i.follow_path) for follow_path
    pff.o(i.pf_opendir) refers to pff.o(i.get_clust) for get_clust
    pff.o(i.pf_opendir) refers to pff.o(i.dir_rewind) for dir_rewind
    pff.o(i.pf_opendir) refers to pff.o(.data) for FatFs
    pff.o(i.pf_read) refers to pff.o(i.get_fat) for get_fat
    pff.o(i.pf_read) refers to pff.o(i.clust2sect) for clust2sect
    pff.o(i.pf_read) refers to diskio.o(i.disk_readp) for disk_readp
    pff.o(i.pf_read) refers to pff.o(.data) for FatFs
    pff.o(i.pf_readdir) refers to pff.o(i.dir_rewind) for dir_rewind
    pff.o(i.pf_readdir) refers to pff.o(i.dir_read) for dir_read
    pff.o(i.pf_readdir) refers to pff.o(i.get_fileinfo) for get_fileinfo
    pff.o(i.pf_readdir) refers to pff.o(i.dir_next) for dir_next
    pff.o(i.pf_readdir) refers to pff.o(.data) for FatFs
    minimp3_adapter.o(i.L12_apply_scf_384) refers to rt_memcpy_w.o(.text) for __aeabi_memcpy4
    minimp3_adapter.o(i.L12_apply_scf_384) refers to fmul.o(x$fpl$fmul) for __aeabi_fmul
    minimp3_adapter.o(i.L12_dequantize_granule) refers to minimp3_adapter.o(i.get_bits) for get_bits
    minimp3_adapter.o(i.L12_dequantize_granule) refers to fflt_clz.o(x$fpl$fflt) for __aeabi_i2f
    minimp3_adapter.o(i.L12_read_scale_info) refers to minimp3_adapter.o(i.L12_subband_alloc_table) for L12_subband_alloc_table
    minimp3_adapter.o(i.L12_read_scale_info) refers to minimp3_adapter.o(i.get_bits) for get_bits
    minimp3_adapter.o(i.L12_read_scale_info) refers to minimp3_adapter.o(i.L12_read_scalefactors) for L12_read_scalefactors
    minimp3_adapter.o(i.L12_read_scale_info) refers to minimp3_adapter.o(.constdata) for g_bitalloc_code_tab
    minimp3_adapter.o(i.L12_read_scalefactors) refers to minimp3_adapter.o(i.get_bits) for get_bits
    minimp3_adapter.o(i.L12_read_scalefactors) refers to fflt_clz.o(x$fpl$fflt) for __aeabi_i2f
    minimp3_adapter.o(i.L12_read_scalefactors) refers to fmul.o(x$fpl$fmul) for __aeabi_fmul
    minimp3_adapter.o(i.L12_read_scalefactors) refers to minimp3_adapter.o(.constdata) for g_deq_L12
    minimp3_adapter.o(i.L12_subband_alloc_table) refers to minimp3_adapter.o(i.hdr_bitrate_kbps) for hdr_bitrate_kbps
    minimp3_adapter.o(i.L12_subband_alloc_table) refers to minimp3_adapter.o(.constdata) for g_alloc_L1
    minimp3_adapter.o(i.L3_antialias) refers to fmul.o(x$fpl$fmul) for __aeabi_fmul
    minimp3_adapter.o(i.L3_antialias) refers to faddsub_clz.o(x$fpl$fsub) for __aeabi_fsub
    minimp3_adapter.o(i.L3_antialias) refers to faddsub_clz.o(x$fpl$fadd) for __aeabi_fadd
    minimp3_adapter.o(i.L3_antialias) refers to minimp3_adapter.o(.constdata) for g_aa
    minimp3_adapter.o(i.L3_dct3_9) refers to fmul.o(x$fpl$fmul) for __aeabi_fmul
    minimp3_adapter.o(i.L3_dct3_9) refers to faddsub_clz.o(x$fpl$fadd) for __aeabi_fadd
    minimp3_adapter.o(i.L3_dct3_9) refers to faddsub_clz.o(x$fpl$fsub) for __aeabi_fsub
    minimp3_adapter.o(i.L3_dct3_9) refers to faddsub_clz.o(x$fpl$frsb) for __aeabi_frsub
    minimp3_adapter.o(i.L3_decode) refers to minimp3_adapter.o(i.L3_decode_scalefactors) for L3_decode_scalefactors
    minimp3_adapter.o(i.L3_decode) refers to minimp3_adapter.o(i.L3_huffman) for L3_huffman
    minimp3_adapter.o(i.L3_decode) refers to minimp3_adapter.o(i.L3_intensity_stereo) for L3_intensity_stereo
    minimp3_adapter.o(i.L3_decode) refers to minimp3_adapter.o(i.L3_midside_stereo) for L3_midside_stereo
    minimp3_adapter.o(i.L3_decode) refers to minimp3_adapter.o(i.L3_reorder) for L3_reorder
    minimp3_adapter.o(i.L3_decode) refers to minimp3_adapter.o(i.L3_antialias) for L3_antialias
    minimp3_adapter.o(i.L3_decode) refers to minimp3_adapter.o(i.L3_imdct_gr) for L3_imdct_gr
    minimp3_adapter.o(i.L3_decode) refers to minimp3_adapter.o(i.L3_change_sign) for L3_change_sign
    minimp3_adapter.o(i.L3_decode_scalefactors) refers to minimp3_adapter.o(i.L3_read_scalefactors) for L3_read_scalefactors
    minimp3_adapter.o(i.L3_decode_scalefactors) refers to minimp3_adapter.o(i.L3_ldexp_q2) for L3_ldexp_q2
    minimp3_adapter.o(i.L3_decode_scalefactors) refers to minimp3_adapter.o(.constdata) for g_scf_partitions
    minimp3_adapter.o(i.L3_huffman) refers to fflt_clz.o(x$fpl$fflt) for __aeabi_i2f
    minimp3_adapter.o(i.L3_huffman) refers to minimp3_adapter.o(i.L3_pow_43) for L3_pow_43
    minimp3_adapter.o(i.L3_huffman) refers to fmul.o(x$fpl$fmul) for __aeabi_fmul
    minimp3_adapter.o(i.L3_huffman) refers to minimp3_adapter.o(.constdata) for tabindex
    minimp3_adapter.o(i.L3_idct3) refers to fmul.o(x$fpl$fmul) for __aeabi_fmul
    minimp3_adapter.o(i.L3_idct3) refers to faddsub_clz.o(x$fpl$frsb) for __aeabi_frsub
    minimp3_adapter.o(i.L3_idct3) refers to faddsub_clz.o(x$fpl$fadd) for __aeabi_fadd
    minimp3_adapter.o(i.L3_idct3) refers to faddsub_clz.o(x$fpl$fsub) for __aeabi_fsub
    minimp3_adapter.o(i.L3_imdct12) refers to faddsub_clz.o(x$fpl$fadd) for __aeabi_fadd
    minimp3_adapter.o(i.L3_imdct12) refers to minimp3_adapter.o(i.L3_idct3) for L3_idct3
    minimp3_adapter.o(i.L3_imdct12) refers to faddsub_clz.o(x$fpl$fsub) for __aeabi_fsub
    minimp3_adapter.o(i.L3_imdct12) refers to fmul.o(x$fpl$fmul) for __aeabi_fmul
    minimp3_adapter.o(i.L3_imdct12) refers to minimp3_adapter.o(.constdata) for g_twid3
    minimp3_adapter.o(i.L3_imdct36) refers to faddsub_clz.o(x$fpl$fsub) for __aeabi_fsub
    minimp3_adapter.o(i.L3_imdct36) refers to faddsub_clz.o(x$fpl$fadd) for __aeabi_fadd
    minimp3_adapter.o(i.L3_imdct36) refers to minimp3_adapter.o(i.L3_dct3_9) for L3_dct3_9
    minimp3_adapter.o(i.L3_imdct36) refers to fmul.o(x$fpl$fmul) for __aeabi_fmul
    minimp3_adapter.o(i.L3_imdct36) refers to minimp3_adapter.o(.constdata) for g_twid9
    minimp3_adapter.o(i.L3_imdct_gr) refers to minimp3_adapter.o(i.L3_imdct36) for L3_imdct36
    minimp3_adapter.o(i.L3_imdct_gr) refers to minimp3_adapter.o(i.L3_imdct_short) for L3_imdct_short
    minimp3_adapter.o(i.L3_imdct_gr) refers to minimp3_adapter.o(.constdata) for g_mdct_window
    minimp3_adapter.o(i.L3_imdct_short) refers to rt_memcpy_w.o(.text) for __aeabi_memcpy4
    minimp3_adapter.o(i.L3_imdct_short) refers to minimp3_adapter.o(i.L3_imdct12) for L3_imdct12
    minimp3_adapter.o(i.L3_intensity_stereo) refers to minimp3_adapter.o(i.L3_stereo_top_band) for L3_stereo_top_band
    minimp3_adapter.o(i.L3_intensity_stereo) refers to minimp3_adapter.o(i.L3_stereo_process) for L3_stereo_process
    minimp3_adapter.o(i.L3_intensity_stereo_band) refers to fmul.o(x$fpl$fmul) for __aeabi_fmul
    minimp3_adapter.o(i.L3_ldexp_q2) refers to fflt_clz.o(x$fpl$fflt) for __aeabi_i2f
    minimp3_adapter.o(i.L3_ldexp_q2) refers to fmul.o(x$fpl$fmul) for __aeabi_fmul
    minimp3_adapter.o(i.L3_ldexp_q2) refers to minimp3_adapter.o(.constdata) for g_expfrac
    minimp3_adapter.o(i.L3_midside_stereo) refers to faddsub_clz.o(x$fpl$fadd) for __aeabi_fadd
    minimp3_adapter.o(i.L3_midside_stereo) refers to faddsub_clz.o(x$fpl$fsub) for __aeabi_fsub
    minimp3_adapter.o(i.L3_pow_43) refers to fflt_clz.o(x$fpl$fflt) for __aeabi_i2f
    minimp3_adapter.o(i.L3_pow_43) refers to fdiv.o(x$fpl$fdiv) for __aeabi_fdiv
    minimp3_adapter.o(i.L3_pow_43) refers to fmul.o(x$fpl$fmul) for __aeabi_fmul
    minimp3_adapter.o(i.L3_pow_43) refers to faddsub_clz.o(x$fpl$fadd) for __aeabi_fadd
    minimp3_adapter.o(i.L3_pow_43) refers to minimp3_adapter.o(.constdata) for g_pow43
    minimp3_adapter.o(i.L3_read_scalefactors) refers to rt_memcpy_v6.o(.text) for __aeabi_memcpy
    minimp3_adapter.o(i.L3_read_scalefactors) refers to rt_memclr.o(.text) for __aeabi_memclr
    minimp3_adapter.o(i.L3_read_scalefactors) refers to minimp3_adapter.o(i.get_bits) for get_bits
    minimp3_adapter.o(i.L3_read_side_info) refers to minimp3_adapter.o(i.get_bits) for get_bits
    minimp3_adapter.o(i.L3_read_side_info) refers to minimp3_adapter.o(.constdata) for g_scf_long
    minimp3_adapter.o(i.L3_reorder) refers to rt_memcpy_w.o(.text) for __aeabi_memcpy4
    minimp3_adapter.o(i.L3_restore_reservoir) refers to rt_memcpy_v6.o(.text) for __aeabi_memcpy
    minimp3_adapter.o(i.L3_restore_reservoir) refers to minimp3_adapter.o(i.bs_init) for bs_init
    minimp3_adapter.o(i.L3_save_reservoir) refers to rt_memmove_v6.o(.text) for __aeabi_memmove
    minimp3_adapter.o(i.L3_stereo_process) refers to minimp3_adapter.o(i.L3_ldexp_q2) for L3_ldexp_q2
    minimp3_adapter.o(i.L3_stereo_process) refers to fmul.o(x$fpl$fmul) for __aeabi_fmul
    minimp3_adapter.o(i.L3_stereo_process) refers to minimp3_adapter.o(i.L3_intensity_stereo_band) for L3_intensity_stereo_band
    minimp3_adapter.o(i.L3_stereo_process) refers to minimp3_adapter.o(i.L3_midside_stereo) for L3_midside_stereo
    minimp3_adapter.o(i.L3_stereo_process) refers to minimp3_adapter.o(.constdata) for g_pan
    minimp3_adapter.o(i.L3_stereo_top_band) refers to feqf.o(x$fpl$feqf) for __aeabi_cfcmpeq
    minimp3_adapter.o(i.hdr_bitrate_kbps) refers to minimp3_adapter.o(.constdata) for halfrate
    minimp3_adapter.o(i.hdr_compare) refers to minimp3_adapter.o(i.hdr_valid) for hdr_valid
    minimp3_adapter.o(i.hdr_frame_bytes) refers to minimp3_adapter.o(i.hdr_frame_samples) for hdr_frame_samples
    minimp3_adapter.o(i.hdr_frame_bytes) refers to minimp3_adapter.o(i.hdr_bitrate_kbps) for hdr_bitrate_kbps
    minimp3_adapter.o(i.hdr_frame_bytes) refers to minimp3_adapter.o(i.hdr_sample_rate_hz) for hdr_sample_rate_hz
    minimp3_adapter.o(i.hdr_sample_rate_hz) refers to minimp3_adapter.o(.constdata) for g_hz
    minimp3_adapter.o(i.mp3d_DCT_II) refers to faddsub_clz.o(x$fpl$fadd) for __aeabi_fadd
    minimp3_adapter.o(i.mp3d_DCT_II) refers to faddsub_clz.o(x$fpl$fsub) for __aeabi_fsub
    minimp3_adapter.o(i.mp3d_DCT_II) refers to fmul.o(x$fpl$fmul) for __aeabi_fmul
    minimp3_adapter.o(i.mp3d_DCT_II) refers to faddsub_clz.o(x$fpl$frsb) for __aeabi_frsub
    minimp3_adapter.o(i.mp3d_DCT_II) refers to minimp3_adapter.o(.constdata) for g_sec
    minimp3_adapter.o(i.mp3d_find_frame) refers to minimp3_adapter.o(i.hdr_valid) for hdr_valid
    minimp3_adapter.o(i.mp3d_find_frame) refers to minimp3_adapter.o(i.hdr_frame_bytes) for hdr_frame_bytes
    minimp3_adapter.o(i.mp3d_find_frame) refers to minimp3_adapter.o(i.hdr_padding) for hdr_padding
    minimp3_adapter.o(i.mp3d_find_frame) refers to minimp3_adapter.o(i.hdr_compare) for hdr_compare
    minimp3_adapter.o(i.mp3d_find_frame) refers to minimp3_adapter.o(i.mp3d_match_frame) for mp3d_match_frame
    minimp3_adapter.o(i.mp3d_match_frame) refers to minimp3_adapter.o(i.hdr_frame_bytes) for hdr_frame_bytes
    minimp3_adapter.o(i.mp3d_match_frame) refers to minimp3_adapter.o(i.hdr_padding) for hdr_padding
    minimp3_adapter.o(i.mp3d_match_frame) refers to minimp3_adapter.o(i.hdr_compare) for hdr_compare
    minimp3_adapter.o(i.mp3d_scale_pcm) refers to f2d.o(x$fpl$f2d) for __aeabi_f2d
    minimp3_adapter.o(i.mp3d_scale_pcm) refers to drleqf.o(x$fpl$drleqf) for __aeabi_cdrcmple
    minimp3_adapter.o(i.mp3d_scale_pcm) refers to dleqf.o(x$fpl$dleqf) for __aeabi_cdcmple
    minimp3_adapter.o(i.mp3d_scale_pcm) refers to faddsub_clz.o(x$fpl$fadd) for __aeabi_fadd
    minimp3_adapter.o(i.mp3d_scale_pcm) refers to ffix.o(x$fpl$ffix) for __aeabi_f2iz
    minimp3_adapter.o(i.mp3d_synth) refers to minimp3_adapter.o(i.mp3d_synth_pair) for mp3d_synth_pair
    minimp3_adapter.o(i.mp3d_synth) refers to fmul.o(x$fpl$fmul) for __aeabi_fmul
    minimp3_adapter.o(i.mp3d_synth) refers to faddsub_clz.o(x$fpl$fadd) for __aeabi_fadd
    minimp3_adapter.o(i.mp3d_synth) refers to faddsub_clz.o(x$fpl$fsub) for __aeabi_fsub
    minimp3_adapter.o(i.mp3d_synth) refers to minimp3_adapter.o(.constdata) for g_win
    minimp3_adapter.o(i.mp3d_synth) refers to minimp3_adapter.o(i.mp3d_scale_pcm) for mp3d_scale_pcm
    minimp3_adapter.o(i.mp3d_synth_granule) refers to minimp3_adapter.o(i.mp3d_DCT_II) for mp3d_DCT_II
    minimp3_adapter.o(i.mp3d_synth_granule) refers to rt_memcpy_w.o(.text) for __aeabi_memcpy4
    minimp3_adapter.o(i.mp3d_synth_granule) refers to minimp3_adapter.o(i.mp3d_synth) for mp3d_synth
    minimp3_adapter.o(i.mp3d_synth_pair) refers to faddsub_clz.o(x$fpl$fsub) for __aeabi_fsub
    minimp3_adapter.o(i.mp3d_synth_pair) refers to fmul.o(x$fpl$fmul) for __aeabi_fmul
    minimp3_adapter.o(i.mp3d_synth_pair) refers to faddsub_clz.o(x$fpl$fadd) for __aeabi_fadd
    minimp3_adapter.o(i.mp3d_synth_pair) refers to minimp3_adapter.o(i.mp3d_scale_pcm) for mp3d_scale_pcm
    minimp3_adapter.o(i.mp3dec_decode_frame) refers to minimp3_adapter.o(i.hdr_compare) for hdr_compare
    minimp3_adapter.o(i.mp3dec_decode_frame) refers to minimp3_adapter.o(i.hdr_frame_bytes) for hdr_frame_bytes
    minimp3_adapter.o(i.mp3dec_decode_frame) refers to minimp3_adapter.o(i.hdr_padding) for hdr_padding
    minimp3_adapter.o(i.mp3dec_decode_frame) refers to rt_memclr_w.o(.text) for __aeabi_memclr4
    minimp3_adapter.o(i.mp3dec_decode_frame) refers to minimp3_adapter.o(i.mp3d_find_frame) for mp3d_find_frame
    minimp3_adapter.o(i.mp3dec_decode_frame) refers to minimp3_adapter.o(i.hdr_sample_rate_hz) for hdr_sample_rate_hz
    minimp3_adapter.o(i.mp3dec_decode_frame) refers to minimp3_adapter.o(i.hdr_bitrate_kbps) for hdr_bitrate_kbps
    minimp3_adapter.o(i.mp3dec_decode_frame) refers to minimp3_adapter.o(i.hdr_frame_samples) for hdr_frame_samples
    minimp3_adapter.o(i.mp3dec_decode_frame) refers to minimp3_adapter.o(i.bs_init) for bs_init
    minimp3_adapter.o(i.mp3dec_decode_frame) refers to minimp3_adapter.o(i.get_bits) for get_bits
    minimp3_adapter.o(i.mp3dec_decode_frame) refers to minimp3_adapter.o(i.L3_read_side_info) for L3_read_side_info
    minimp3_adapter.o(i.mp3dec_decode_frame) refers to minimp3_adapter.o(i.mp3dec_init) for mp3dec_init
    minimp3_adapter.o(i.mp3dec_decode_frame) refers to minimp3_adapter.o(i.L3_restore_reservoir) for L3_restore_reservoir
    minimp3_adapter.o(i.mp3dec_decode_frame) refers to minimp3_adapter.o(i.L3_decode) for L3_decode
    minimp3_adapter.o(i.mp3dec_decode_frame) refers to minimp3_adapter.o(i.mp3d_synth_granule) for mp3d_synth_granule
    minimp3_adapter.o(i.mp3dec_decode_frame) refers to minimp3_adapter.o(i.L3_save_reservoir) for L3_save_reservoir
    minimp3_adapter.o(i.mp3dec_decode_frame) refers to minimp3_adapter.o(i.L12_read_scale_info) for L12_read_scale_info
    minimp3_adapter.o(i.mp3dec_decode_frame) refers to minimp3_adapter.o(i.L12_dequantize_granule) for L12_dequantize_granule
    minimp3_adapter.o(i.mp3dec_decode_frame) refers to minimp3_adapter.o(i.L12_apply_scf_384) for L12_apply_scf_384
    stm32f10x_adc.o(i.ADC_DeInit) refers to stm32f10x_rcc.o(i.RCC_APB2PeriphResetCmd) for RCC_APB2PeriphResetCmd
    stm32f10x_bkp.o(i.BKP_DeInit) refers to stm32f10x_rcc.o(i.RCC_BackupResetCmd) for RCC_BackupResetCmd
    stm32f10x_can.o(i.CAN_DeInit) refers to stm32f10x_rcc.o(i.RCC_APB1PeriphResetCmd) for RCC_APB1PeriphResetCmd
    stm32f10x_can.o(i.CAN_GetITStatus) refers to stm32f10x_can.o(i.CheckITStatus) for CheckITStatus
    stm32f10x_cec.o(i.CEC_DeInit) refers to stm32f10x_rcc.o(i.RCC_APB1PeriphResetCmd) for RCC_APB1PeriphResetCmd
    stm32f10x_dac.o(i.DAC_DeInit) refers to stm32f10x_rcc.o(i.RCC_APB1PeriphResetCmd) for RCC_APB1PeriphResetCmd
    stm32f10x_flash.o(i.FLASH_EnableWriteProtection) refers to stm32f10x_flash.o(i.FLASH_WaitForLastOperation) for FLASH_WaitForLastOperation
    stm32f10x_flash.o(i.FLASH_EraseAllBank1Pages) refers to stm32f10x_flash.o(i.FLASH_WaitForLastBank1Operation) for FLASH_WaitForLastBank1Operation
    stm32f10x_flash.o(i.FLASH_EraseAllPages) refers to stm32f10x_flash.o(i.FLASH_WaitForLastOperation) for FLASH_WaitForLastOperation
    stm32f10x_flash.o(i.FLASH_EraseOptionBytes) refers to stm32f10x_flash.o(i.FLASH_GetReadOutProtectionStatus) for FLASH_GetReadOutProtectionStatus
    stm32f10x_flash.o(i.FLASH_EraseOptionBytes) refers to stm32f10x_flash.o(i.FLASH_WaitForLastOperation) for FLASH_WaitForLastOperation
    stm32f10x_flash.o(i.FLASH_ErasePage) refers to stm32f10x_flash.o(i.FLASH_WaitForLastOperation) for FLASH_WaitForLastOperation
    stm32f10x_flash.o(i.FLASH_ProgramHalfWord) refers to stm32f10x_flash.o(i.FLASH_WaitForLastOperation) for FLASH_WaitForLastOperation
    stm32f10x_flash.o(i.FLASH_ProgramOptionByteData) refers to stm32f10x_flash.o(i.FLASH_WaitForLastOperation) for FLASH_WaitForLastOperation
    stm32f10x_flash.o(i.FLASH_ProgramWord) refers to stm32f10x_flash.o(i.FLASH_WaitForLastOperation) for FLASH_WaitForLastOperation
    stm32f10x_flash.o(i.FLASH_ReadOutProtection) refers to stm32f10x_flash.o(i.FLASH_WaitForLastOperation) for FLASH_WaitForLastOperation
    stm32f10x_flash.o(i.FLASH_UserOptionByteConfig) refers to stm32f10x_flash.o(i.FLASH_WaitForLastOperation) for FLASH_WaitForLastOperation
    stm32f10x_flash.o(i.FLASH_WaitForLastBank1Operation) refers to stm32f10x_flash.o(i.FLASH_GetBank1Status) for FLASH_GetBank1Status
    stm32f10x_flash.o(i.FLASH_WaitForLastOperation) refers to stm32f10x_flash.o(i.FLASH_GetBank1Status) for FLASH_GetBank1Status
    stm32f10x_gpio.o(i.GPIO_AFIODeInit) refers to stm32f10x_rcc.o(i.RCC_APB2PeriphResetCmd) for RCC_APB2PeriphResetCmd
    stm32f10x_gpio.o(i.GPIO_DeInit) refers to stm32f10x_rcc.o(i.RCC_APB2PeriphResetCmd) for RCC_APB2PeriphResetCmd
    stm32f10x_i2c.o(i.I2C_DeInit) refers to stm32f10x_rcc.o(i.RCC_APB1PeriphResetCmd) for RCC_APB1PeriphResetCmd
    stm32f10x_i2c.o(i.I2C_Init) refers to stm32f10x_rcc.o(i.RCC_GetClocksFreq) for RCC_GetClocksFreq
    stm32f10x_pwr.o(i.PWR_DeInit) refers to stm32f10x_rcc.o(i.RCC_APB1PeriphResetCmd) for RCC_APB1PeriphResetCmd
    stm32f10x_rcc.o(i.RCC_GetClocksFreq) refers to stm32f10x_rcc.o(.data) for APBAHBPrescTable
    stm32f10x_rcc.o(i.RCC_WaitForHSEStartUp) refers to stm32f10x_rcc.o(i.RCC_GetFlagStatus) for RCC_GetFlagStatus
    stm32f10x_rtc.o(i.RTC_SetAlarm) refers to stm32f10x_rtc.o(i.RTC_EnterConfigMode) for RTC_EnterConfigMode
    stm32f10x_rtc.o(i.RTC_SetAlarm) refers to stm32f10x_rtc.o(i.RTC_ExitConfigMode) for RTC_ExitConfigMode
    stm32f10x_rtc.o(i.RTC_SetCounter) refers to stm32f10x_rtc.o(i.RTC_EnterConfigMode) for RTC_EnterConfigMode
    stm32f10x_rtc.o(i.RTC_SetCounter) refers to stm32f10x_rtc.o(i.RTC_ExitConfigMode) for RTC_ExitConfigMode
    stm32f10x_rtc.o(i.RTC_SetPrescaler) refers to stm32f10x_rtc.o(i.RTC_EnterConfigMode) for RTC_EnterConfigMode
    stm32f10x_rtc.o(i.RTC_SetPrescaler) refers to stm32f10x_rtc.o(i.RTC_ExitConfigMode) for RTC_ExitConfigMode
    stm32f10x_spi.o(i.I2S_Init) refers to stm32f10x_rcc.o(i.RCC_GetClocksFreq) for RCC_GetClocksFreq
    stm32f10x_spi.o(i.SPI_I2S_DeInit) refers to stm32f10x_rcc.o(i.RCC_APB2PeriphResetCmd) for RCC_APB2PeriphResetCmd
    stm32f10x_spi.o(i.SPI_I2S_DeInit) refers to stm32f10x_rcc.o(i.RCC_APB1PeriphResetCmd) for RCC_APB1PeriphResetCmd
    stm32f10x_tim.o(i.TIM_DeInit) refers to stm32f10x_rcc.o(i.RCC_APB2PeriphResetCmd) for RCC_APB2PeriphResetCmd
    stm32f10x_tim.o(i.TIM_DeInit) refers to stm32f10x_rcc.o(i.RCC_APB1PeriphResetCmd) for RCC_APB1PeriphResetCmd
    stm32f10x_tim.o(i.TIM_ETRClockMode1Config) refers to stm32f10x_tim.o(i.TIM_ETRConfig) for TIM_ETRConfig
    stm32f10x_tim.o(i.TIM_ETRClockMode2Config) refers to stm32f10x_tim.o(i.TIM_ETRConfig) for TIM_ETRConfig
    stm32f10x_tim.o(i.TIM_ICInit) refers to stm32f10x_tim.o(i.TI1_Config) for TI1_Config
    stm32f10x_tim.o(i.TIM_ICInit) refers to stm32f10x_tim.o(i.TIM_SetIC1Prescaler) for TIM_SetIC1Prescaler
    stm32f10x_tim.o(i.TIM_ICInit) refers to stm32f10x_tim.o(i.TI2_Config) for TI2_Config
    stm32f10x_tim.o(i.TIM_ICInit) refers to stm32f10x_tim.o(i.TIM_SetIC2Prescaler) for TIM_SetIC2Prescaler
    stm32f10x_tim.o(i.TIM_ICInit) refers to stm32f10x_tim.o(i.TI3_Config) for TI3_Config
    stm32f10x_tim.o(i.TIM_ICInit) refers to stm32f10x_tim.o(i.TIM_SetIC3Prescaler) for TIM_SetIC3Prescaler
    stm32f10x_tim.o(i.TIM_ICInit) refers to stm32f10x_tim.o(i.TI4_Config) for TI4_Config
    stm32f10x_tim.o(i.TIM_ICInit) refers to stm32f10x_tim.o(i.TIM_SetIC4Prescaler) for TIM_SetIC4Prescaler
    stm32f10x_tim.o(i.TIM_ITRxExternalClockConfig) refers to stm32f10x_tim.o(i.TIM_SelectInputTrigger) for TIM_SelectInputTrigger
    stm32f10x_tim.o(i.TIM_PWMIConfig) refers to stm32f10x_tim.o(i.TI1_Config) for TI1_Config
    stm32f10x_tim.o(i.TIM_PWMIConfig) refers to stm32f10x_tim.o(i.TIM_SetIC1Prescaler) for TIM_SetIC1Prescaler
    stm32f10x_tim.o(i.TIM_PWMIConfig) refers to stm32f10x_tim.o(i.TI2_Config) for TI2_Config
    stm32f10x_tim.o(i.TIM_PWMIConfig) refers to stm32f10x_tim.o(i.TIM_SetIC2Prescaler) for TIM_SetIC2Prescaler
    stm32f10x_tim.o(i.TIM_TIxExternalClockConfig) refers to stm32f10x_tim.o(i.TI2_Config) for TI2_Config
    stm32f10x_tim.o(i.TIM_TIxExternalClockConfig) refers to stm32f10x_tim.o(i.TI1_Config) for TI1_Config
    stm32f10x_tim.o(i.TIM_TIxExternalClockConfig) refers to stm32f10x_tim.o(i.TIM_SelectInputTrigger) for TIM_SelectInputTrigger
    stm32f10x_usart.o(i.USART_DeInit) refers to stm32f10x_rcc.o(i.RCC_APB2PeriphResetCmd) for RCC_APB2PeriphResetCmd
    stm32f10x_usart.o(i.USART_DeInit) refers to stm32f10x_rcc.o(i.RCC_APB1PeriphResetCmd) for RCC_APB1PeriphResetCmd
    stm32f10x_usart.o(i.USART_Init) refers to stm32f10x_rcc.o(i.RCC_GetClocksFreq) for RCC_GetClocksFreq
    stm32f10x_wwdg.o(i.WWDG_DeInit) refers to stm32f10x_rcc.o(i.RCC_APB1PeriphResetCmd) for RCC_APB1PeriphResetCmd
    use_no_semi_2.o(.text) refers (Special) to use_no_semi.o(.text) for __use_no_semihosting_swi
    __2printf.o(.text) refers to _printf_char_file.o(.text) for _printf_char_file
    __2printf.o(.text) refers to usart.o(.data) for __stdout
    __2sprintf.o(.text) refers to _printf_char_common.o(.text) for _printf_char_common
    __2sprintf.o(.text) refers to _sputc.o(.text) for _sputc
    noretval__2printf.o(.text) refers to _printf_char_file.o(.text) for _printf_char_file
    noretval__2printf.o(.text) refers to usart.o(.data) for __stdout
    noretval__2sprintf.o(.text) refers to _printf_char_common.o(.text) for _printf_char_common
    noretval__2sprintf.o(.text) refers to _sputc.o(.text) for _sputc
    __printf.o(.text) refers to _printf_percent.o(.ARM.Collect$$_printf_percent$$00000000) for _printf_percent
    _printf_str.o(.text) refers (Special) to _printf_char.o(.text) for _printf_cs_common
    _printf_str.o(.text) refers (Weak) to _printf_pad.o(.text) for _printf_pre_padding
    _printf_str.o(.text) refers (Weak) to _printf_pad.o(.text) for _printf_post_padding
    _printf_dec.o(.text) refers to _printf_intcommon.o(.text) for _printf_int_common
    _printf_hex_ll.o(.text) refers to _printf_intcommon.o(.text) for _printf_int_common
    _printf_hex_ll.o(.text) refers to _printf_hex_ll.o(.constdata) for .constdata
    _printf_hex_int.o(.text) refers to _printf_intcommon.o(.text) for _printf_int_common
    _printf_hex_int.o(.text) refers to _printf_hex_int.o(.constdata) for .constdata
    _printf_hex_int_ll.o(.text) refers to _printf_intcommon.o(.text) for _printf_int_common
    _printf_hex_int_ll.o(.text) refers to _printf_hex_int_ll.o(.constdata) for .constdata
    _printf_hex_ptr.o(.text) refers to _printf_intcommon.o(.text) for _printf_int_common
    _printf_hex_ptr.o(.text) refers to _printf_hex_ptr.o(.constdata) for .constdata
    _printf_hex_int_ptr.o(.text) refers to _printf_intcommon.o(.text) for _printf_int_common
    _printf_hex_int_ptr.o(.text) refers to _printf_hex_int_ptr.o(.constdata) for .constdata
    _printf_hex_ll_ptr.o(.text) refers to _printf_intcommon.o(.text) for _printf_int_common
    _printf_hex_ll_ptr.o(.text) refers to _printf_hex_ll_ptr.o(.constdata) for .constdata
    _printf_hex_int_ll_ptr.o(.text) refers to _printf_intcommon.o(.text) for _printf_int_common
    _printf_hex_int_ll_ptr.o(.text) refers to _printf_hex_int_ll_ptr.o(.constdata) for .constdata
    __printf_flags.o(.text) refers to _printf_percent.o(.ARM.Collect$$_printf_percent$$00000000) for _printf_percent
    __printf_flags.o(.text) refers to __printf_flags.o(.constdata) for .constdata
    __printf_ss.o(.text) refers to _printf_percent.o(.ARM.Collect$$_printf_percent$$00000000) for _printf_percent
    __printf_flags_ss.o(.text) refers to _printf_percent.o(.ARM.Collect$$_printf_percent$$00000000) for _printf_percent
    __printf_flags_ss.o(.text) refers to __printf_flags_ss.o(.constdata) for .constdata
    __printf_wp.o(.text) refers to __printf_wp.o(i._is_digit) for _is_digit
    __printf_wp.o(.text) refers to _printf_percent.o(.ARM.Collect$$_printf_percent$$00000000) for _printf_percent
    __printf_flags_wp.o(.text) refers to __printf_wp.o(i._is_digit) for _is_digit
    __printf_flags_wp.o(.text) refers to _printf_percent.o(.ARM.Collect$$_printf_percent$$00000000) for _printf_percent
    __printf_flags_wp.o(.text) refers to __printf_flags_wp.o(.constdata) for .constdata
    __printf_ss_wp.o(.text) refers to __printf_wp.o(i._is_digit) for _is_digit
    __printf_ss_wp.o(.text) refers to _printf_percent.o(.ARM.Collect$$_printf_percent$$00000000) for _printf_percent
    __printf_flags_ss_wp.o(.text) refers to __printf_wp.o(i._is_digit) for _is_digit
    __printf_flags_ss_wp.o(.text) refers to _printf_percent.o(.ARM.Collect$$_printf_percent$$00000000) for _printf_percent
    __printf_flags_ss_wp.o(.text) refers to __printf_flags_ss_wp.o(.constdata) for .constdata
    _printf_s.o(.ARM.Collect$$_printf_percent$$00000014) refers (Weak) to _printf_char.o(.text) for _printf_string
    _printf_x.o(.ARM.Collect$$_printf_percent$$0000000C) refers (Weak) to _printf_hex_int.o(.text) for _printf_int_hex
    _printf_d.o(.ARM.Collect$$_printf_percent$$00000009) refers (Weak) to _printf_dec.o(.text) for _printf_int_dec
    _printf_u.o(.ARM.Collect$$_printf_percent$$0000000A) refers (Weak) to _printf_dec.o(.text) for _printf_int_dec
    _printf_percent.o(.ARM.Collect$$_printf_percent$$00000000) refers (Special) to _printf_percent_end.o(.ARM.Collect$$_printf_percent$$00000017) for _printf_percent_end
    rt_memcpy_v6.o(.text) refers to rt_memcpy_w.o(.text) for __aeabi_memcpy4
    rt_memmove_v6.o(.text) refers to rt_memcpy_v6.o(.text) for __aeabi_memcpy
    rt_memmove_v6.o(.text) refers to rt_memmove_w.o(.text) for __memmove_aligned
    rt_memclr.o(.text) refers to rt_memclr_w.o(.text) for _memset_w
    __main.o(!!!main) refers to __rtentry.o(.ARM.Collect$$rtentry$$00000000) for __rt_entry
    dleqf.o(x$fpl$dleqf) refers (Special) to usenofp.o(x$fpl$usenofp) for __I$use$fp
    dleqf.o(x$fpl$dleqf) refers to dnaninf.o(x$fpl$dnaninf) for __fpl_dnaninf
    dleqf.o(x$fpl$dleqf) refers to dcmpi.o(x$fpl$dcmpinf) for __fpl_dcmp_Inf
    drleqf.o(x$fpl$drleqf) refers (Special) to usenofp.o(x$fpl$usenofp) for __I$use$fp
    drleqf.o(x$fpl$drleqf) refers to dleqf.o(x$fpl$dleqf) for __fpl_dcmple_InfNaN
    f2d.o(x$fpl$f2d) refers (Special) to usenofp.o(x$fpl$usenofp) for __I$use$fp
    f2d.o(x$fpl$f2d) refers to fnaninf.o(x$fpl$fnaninf) for __fpl_fnaninf
    f2d.o(x$fpl$f2d) refers to dretinf.o(x$fpl$dretinf) for __fpl_dretinf
    faddsub_clz.o(x$fpl$fadd) refers (Special) to usenofp.o(x$fpl$usenofp) for __I$use$fp
    faddsub_clz.o(x$fpl$fadd) refers to faddsub_clz.o(x$fpl$fsub) for _fsub1
    faddsub_clz.o(x$fpl$fadd) refers to fretinf.o(x$fpl$fretinf) for __fpl_fretinf
    faddsub_clz.o(x$fpl$fadd) refers to fnaninf.o(x$fpl$fnaninf) for __fpl_fnaninf
    faddsub_clz.o(x$fpl$frsb) refers (Special) to usenofp.o(x$fpl$usenofp) for __I$use$fp
    faddsub_clz.o(x$fpl$frsb) refers to faddsub_clz.o(x$fpl$fadd) for _fadd1
    faddsub_clz.o(x$fpl$frsb) refers to faddsub_clz.o(x$fpl$fsub) for _fsub1
    faddsub_clz.o(x$fpl$fsub) refers (Special) to usenofp.o(x$fpl$usenofp) for __I$use$fp
    faddsub_clz.o(x$fpl$fsub) refers to faddsub_clz.o(x$fpl$fadd) for _fadd1
    faddsub_clz.o(x$fpl$fsub) refers to fnaninf.o(x$fpl$fnaninf) for __fpl_fnaninf
    fdiv.o(x$fpl$frdiv) refers (Special) to usenofp.o(x$fpl$usenofp) for __I$use$fp
    fdiv.o(x$fpl$frdiv) refers to fdiv.o(x$fpl$fdiv) for _fdiv1
    fdiv.o(x$fpl$fdiv) refers (Special) to usenofp.o(x$fpl$usenofp) for __I$use$fp
    fdiv.o(x$fpl$fdiv) refers to fretinf.o(x$fpl$fretinf) for __fpl_fretinf
    fdiv.o(x$fpl$fdiv) refers to fnaninf.o(x$fpl$fnaninf) for __fpl_fnaninf
    feqf.o(x$fpl$feqf) refers (Special) to usenofp.o(x$fpl$usenofp) for __I$use$fp
    feqf.o(x$fpl$feqf) refers to fnaninf.o(x$fpl$fnaninf) for __fpl_fnaninf
    feqf.o(x$fpl$feqf) refers to fcmpi.o(x$fpl$fcmpinf) for __fpl_fcmp_Inf
    ffix.o(x$fpl$ffix) refers (Special) to usenofp.o(x$fpl$usenofp) for __I$use$fp
    ffix.o(x$fpl$ffix) refers to fnaninf.o(x$fpl$fnaninf) for __fpl_fnaninf
    ffix.o(x$fpl$ffixr) refers (Special) to usenofp.o(x$fpl$usenofp) for __I$use$fp
    ffix.o(x$fpl$ffixr) refers to fnaninf.o(x$fpl$fnaninf) for __fpl_fnaninf
    fflt_clz.o(x$fpl$ffltu) refers (Special) to usenofp.o(x$fpl$usenofp) for __I$use$fp
    fflt_clz.o(x$fpl$fflt) refers (Special) to usenofp.o(x$fpl$usenofp) for __I$use$fp
    fflt_clz.o(x$fpl$ffltn) refers (Special) to usenofp.o(x$fpl$usenofp) for __I$use$fp
    fmul.o(x$fpl$fmul) refers (Special) to usenofp.o(x$fpl$usenofp) for __I$use$fp
    fmul.o(x$fpl$fmul) refers to fretinf.o(x$fpl$fretinf) for __fpl_fretinf
    fmul.o(x$fpl$fmul) refers to fnaninf.o(x$fpl$fnaninf) for __fpl_fnaninf
    __rtentry.o(.ARM.Collect$$rtentry$$00000000) refers (Special) to __rtentry2.o(.ARM.Collect$$rtentry$$0000000A) for __rt_entry_li
    __rtentry.o(.ARM.Collect$$rtentry$$00000000) refers (Special) to __rtentry2.o(.ARM.Collect$$rtentry$$0000000D) for __rt_entry_main
    __rtentry.o(.ARM.Collect$$rtentry$$00000000) refers (Special) to __rtentry2.o(.ARM.Collect$$rtentry$$0000000C) for __rt_entry_postli_1
    __rtentry.o(.ARM.Collect$$rtentry$$00000000) refers (Special) to __rtentry2.o(.ARM.Collect$$rtentry$$00000009) for __rt_entry_postsh_1
    __rtentry.o(.ARM.Collect$$rtentry$$00000000) refers (Special) to __rtentry2.o(.ARM.Collect$$rtentry$$00000002) for __rt_entry_presh_1
    __rtentry.o(.ARM.Collect$$rtentry$$00000000) refers (Special) to __rtentry4.o(.ARM.Collect$$rtentry$$00000004) for __rt_entry_sh
    _printf_intcommon.o(.text) refers (Weak) to _printf_pad.o(.text) for _printf_pre_padding
    _printf_intcommon.o(.text) refers (Weak) to _printf_pad.o(.text) for _printf_pre_padding
    _printf_intcommon.o(.text) refers (Weak) to _printf_pad.o(.text) for _printf_post_padding
    _printf_char_common.o(.text) refers to __printf_flags_ss_wp.o(.text) for __printf
    _printf_char.o(.text) refers (Weak) to _printf_str.o(.text) for _printf_str
    _printf_char_file.o(.text) refers to _printf_char_common.o(.text) for _printf_char_common
    _printf_char_file.o(.text) refers to ferror.o(.text) for ferror
    _printf_char_file.o(.text) refers to usart.o(i.fputc) for fputc
    rt_memmove_w.o(.text) refers to rt_memcpy_w.o(.text) for __aeabi_memcpy4
    dcmpi.o(x$fpl$dcmpinf) refers (Special) to usenofp.o(x$fpl$usenofp) for __I$use$fp
    dnaninf.o(x$fpl$dnaninf) refers (Special) to usenofp.o(x$fpl$usenofp) for __I$use$fp
    dretinf.o(x$fpl$dretinf) refers (Special) to usenofp.o(x$fpl$usenofp) for __I$use$fp
    fcmpi.o(x$fpl$fcmpinf) refers (Special) to usenofp.o(x$fpl$usenofp) for __I$use$fp
    fnaninf.o(x$fpl$fnaninf) refers (Special) to usenofp.o(x$fpl$usenofp) for __I$use$fp
    fretinf.o(x$fpl$fretinf) refers (Special) to usenofp.o(x$fpl$usenofp) for __I$use$fp
    __rtentry2.o(.ARM.Collect$$rtentry$$00000008) refers to boardinit2.o(.text) for _platform_post_stackheap_init
    __rtentry2.o(.ARM.Collect$$rtentry$$0000000A) refers to libinit.o(.ARM.Collect$$libinit$$00000000) for __rt_lib_init
    __rtentry2.o(.ARM.Collect$$rtentry$$0000000B) refers to boardinit3.o(.text) for _platform_post_lib_init
    __rtentry2.o(.ARM.Collect$$rtentry$$0000000D) refers to main.o(i.main) for main
    __rtentry2.o(.ARM.Collect$$rtentry$$0000000D) refers to exit.o(.text) for exit
    __rtentry2.o(.ARM.exidx) refers to __rtentry2.o(.ARM.Collect$$rtentry$$00000001) for .ARM.Collect$$rtentry$$00000001
    __rtentry2.o(.ARM.exidx) refers to __rtentry2.o(.ARM.Collect$$rtentry$$00000008) for .ARM.Collect$$rtentry$$00000008
    __rtentry2.o(.ARM.exidx) refers to __rtentry2.o(.ARM.Collect$$rtentry$$0000000A) for .ARM.Collect$$rtentry$$0000000A
    __rtentry2.o(.ARM.exidx) refers to __rtentry2.o(.ARM.Collect$$rtentry$$0000000B) for .ARM.Collect$$rtentry$$0000000B
    __rtentry2.o(.ARM.exidx) refers to __rtentry2.o(.ARM.Collect$$rtentry$$0000000D) for .ARM.Collect$$rtentry$$0000000D
    __rtentry4.o(.ARM.Collect$$rtentry$$00000004) refers to sys_stackheap_outer.o(.text) for __user_setup_stackheap
    __rtentry4.o(.ARM.exidx) refers to __rtentry4.o(.ARM.Collect$$rtentry$$00000004) for .ARM.Collect$$rtentry$$00000004
    sys_stackheap_outer.o(.text) refers to libspace.o(.text) for __user_perproc_libspace
    sys_stackheap_outer.o(.text) refers to startup_stm32f10x_hd.o(.text) for __user_initial_stackheap
    exit.o(.text) refers to rtexit.o(.ARM.Collect$$rtexit$$00000000) for __rt_exit
    libinit.o(.ARM.Collect$$libinit$$00000000) refers (Special) to libinit2.o(.ARM.Collect$$libinit$$0000002E) for __rt_lib_init_alloca_1
    libinit.o(.ARM.Collect$$libinit$$00000000) refers (Special) to libinit2.o(.ARM.Collect$$libinit$$0000002C) for __rt_lib_init_argv_1
    libinit.o(.ARM.Collect$$libinit$$00000000) refers (Special) to libinit2.o(.ARM.Collect$$libinit$$0000001B) for __rt_lib_init_atexit_1
    libinit.o(.ARM.Collect$$libinit$$00000000) refers (Special) to libinit2.o(.ARM.Collect$$libinit$$00000021) for __rt_lib_init_clock_1
    libinit.o(.ARM.Collect$$libinit$$00000000) refers (Special) to libinit2.o(.ARM.Collect$$libinit$$00000032) for __rt_lib_init_cpp_1
    libinit.o(.ARM.Collect$$libinit$$00000000) refers (Special) to libinit2.o(.ARM.Collect$$libinit$$00000030) for __rt_lib_init_exceptions_1
    libinit.o(.ARM.Collect$$libinit$$00000000) refers (Special) to libinit2.o(.ARM.Collect$$libinit$$00000002) for __rt_lib_init_fp_1
    libinit.o(.ARM.Collect$$libinit$$00000000) refers (Special) to libinit2.o(.ARM.Collect$$libinit$$0000001F) for __rt_lib_init_fp_trap_1
    libinit.o(.ARM.Collect$$libinit$$00000000) refers (Special) to libinit2.o(.ARM.Collect$$libinit$$00000023) for __rt_lib_init_getenv_1
    libinit.o(.ARM.Collect$$libinit$$00000000) refers (Special) to libinit2.o(.ARM.Collect$$libinit$$0000000A) for __rt_lib_init_heap_1
    libinit.o(.ARM.Collect$$libinit$$00000000) refers (Special) to libinit2.o(.ARM.Collect$$libinit$$00000011) for __rt_lib_init_lc_collate_1
    libinit.o(.ARM.Collect$$libinit$$00000000) refers (Special) to libinit2.o(.ARM.Collect$$libinit$$00000013) for __rt_lib_init_lc_ctype_1
    libinit.o(.ARM.Collect$$libinit$$00000000) refers (Special) to libinit2.o(.ARM.Collect$$libinit$$00000015) for __rt_lib_init_lc_monetary_1
    libinit.o(.ARM.Collect$$libinit$$00000000) refers (Special) to libinit2.o(.ARM.Collect$$libinit$$00000017) for __rt_lib_init_lc_numeric_1
    libinit.o(.ARM.Collect$$libinit$$00000000) refers (Special) to libinit2.o(.ARM.Collect$$libinit$$00000019) for __rt_lib_init_lc_time_1
    libinit.o(.ARM.Collect$$libinit$$00000000) refers (Special) to libinit2.o(.ARM.Collect$$libinit$$00000004) for __rt_lib_init_preinit_1
    libinit.o(.ARM.Collect$$libinit$$00000000) refers (Special) to libinit2.o(.ARM.Collect$$libinit$$0000000E) for __rt_lib_init_rand_1
    libinit.o(.ARM.Collect$$libinit$$00000000) refers (Special) to libinit2.o(.ARM.Collect$$libinit$$00000033) for __rt_lib_init_return
    libinit.o(.ARM.Collect$$libinit$$00000000) refers (Special) to libinit2.o(.ARM.Collect$$libinit$$0000001D) for __rt_lib_init_signal_1
    libinit.o(.ARM.Collect$$libinit$$00000000) refers (Special) to libinit2.o(.ARM.Collect$$libinit$$00000025) for __rt_lib_init_stdio_1
    libinit.o(.ARM.Collect$$libinit$$00000000) refers (Special) to libinit2.o(.ARM.Collect$$libinit$$0000000C) for __rt_lib_init_user_alloc_1
    libspace.o(.text) refers to libspace.o(.bss) for __libspace_start
    rtexit.o(.ARM.Collect$$rtexit$$00000000) refers (Special) to rtexit2.o(.ARM.Collect$$rtexit$$00000004) for __rt_exit_exit
    rtexit.o(.ARM.Collect$$rtexit$$00000000) refers (Special) to rtexit2.o(.ARM.Collect$$rtexit$$00000003) for __rt_exit_ls
    rtexit.o(.ARM.Collect$$rtexit$$00000000) refers (Special) to rtexit2.o(.ARM.Collect$$rtexit$$00000002) for __rt_exit_prels_1
    rtexit.o(.ARM.exidx) refers (Special) to rtexit2.o(.ARM.Collect$$rtexit$$00000004) for __rt_exit_exit
    rtexit.o(.ARM.exidx) refers (Special) to rtexit2.o(.ARM.Collect$$rtexit$$00000003) for __rt_exit_ls
    rtexit.o(.ARM.exidx) refers (Special) to rtexit2.o(.ARM.Collect$$rtexit$$00000002) for __rt_exit_prels_1
    rtexit.o(.ARM.exidx) refers to rtexit.o(.ARM.Collect$$rtexit$$00000000) for .ARM.Collect$$rtexit$$00000000
    libinit2.o(.ARM.Collect$$libinit$$00000010) refers to libinit2.o(.ARM.Collect$$libinit$$0000000F) for .ARM.Collect$$libinit$$0000000F
    libinit2.o(.ARM.Collect$$libinit$$00000012) refers to libinit2.o(.ARM.Collect$$libinit$$0000000F) for .ARM.Collect$$libinit$$0000000F
    libinit2.o(.ARM.Collect$$libinit$$00000014) refers to libinit2.o(.ARM.Collect$$libinit$$0000000F) for .ARM.Collect$$libinit$$0000000F
    libinit2.o(.ARM.Collect$$libinit$$00000016) refers to libinit2.o(.ARM.Collect$$libinit$$0000000F) for .ARM.Collect$$libinit$$0000000F
    libinit2.o(.ARM.Collect$$libinit$$00000018) refers to libinit2.o(.ARM.Collect$$libinit$$0000000F) for .ARM.Collect$$libinit$$0000000F
    libinit2.o(.ARM.Collect$$libinit$$00000026) refers to argv_veneer.o(.emb_text) for __ARM_argv_veneer
    libinit2.o(.ARM.Collect$$libinit$$00000027) refers to argv_veneer.o(.emb_text) for __ARM_argv_veneer
    rtexit2.o(.ARM.Collect$$rtexit$$00000003) refers to libshutdown.o(.ARM.Collect$$libshutdown$$00000000) for __rt_lib_shutdown
    rtexit2.o(.ARM.Collect$$rtexit$$00000004) refers to usart.o(i._sys_exit) for _sys_exit
    rtexit2.o(.ARM.exidx) refers to rtexit2.o(.ARM.Collect$$rtexit$$00000001) for .ARM.Collect$$rtexit$$00000001
    rtexit2.o(.ARM.exidx) refers to rtexit2.o(.ARM.Collect$$rtexit$$00000003) for .ARM.Collect$$rtexit$$00000003
    rtexit2.o(.ARM.exidx) refers to rtexit2.o(.ARM.Collect$$rtexit$$00000004) for .ARM.Collect$$rtexit$$00000004
    argv_veneer.o(.emb_text) refers to no_argv.o(.text) for __ARM_get_argv
    _get_argv_nomalloc.o(.text) refers (Special) to hrguard.o(.text) for __heap_region$guard
    _get_argv_nomalloc.o(.text) refers to defsig_rtmem_outer.o(.text) for __rt_SIGRTMEM
    _get_argv_nomalloc.o(.text) refers to sys_command.o(.text) for _sys_command_string
    libshutdown.o(.ARM.Collect$$libshutdown$$00000000) refers (Special) to libshutdown2.o(.ARM.Collect$$libshutdown$$00000004) for __rt_lib_shutdown_cpp_1
    libshutdown.o(.ARM.Collect$$libshutdown$$00000000) refers (Special) to libshutdown2.o(.ARM.Collect$$libshutdown$$00000002) for __rt_lib_shutdown_fini_1
    libshutdown.o(.ARM.Collect$$libshutdown$$00000000) refers (Special) to libshutdown2.o(.ARM.Collect$$libshutdown$$00000009) for __rt_lib_shutdown_fp_trap_1
    libshutdown.o(.ARM.Collect$$libshutdown$$00000000) refers (Special) to libshutdown2.o(.ARM.Collect$$libshutdown$$00000011) for __rt_lib_shutdown_heap_1
    libshutdown.o(.ARM.Collect$$libshutdown$$00000000) refers (Special) to libshutdown2.o(.ARM.Collect$$libshutdown$$00000012) for __rt_lib_shutdown_return
    libshutdown.o(.ARM.Collect$$libshutdown$$00000000) refers (Special) to libshutdown2.o(.ARM.Collect$$libshutdown$$0000000C) for __rt_lib_shutdown_signal_1
    libshutdown.o(.ARM.Collect$$libshutdown$$00000000) refers (Special) to libshutdown2.o(.ARM.Collect$$libshutdown$$00000006) for __rt_lib_shutdown_stdio_1
    libshutdown.o(.ARM.Collect$$libshutdown$$00000000) refers (Special) to libshutdown2.o(.ARM.Collect$$libshutdown$$0000000E) for __rt_lib_shutdown_user_alloc_1
    sys_command.o(.text) refers (Special) to use_no_semi.o(.text) for __I$use$semihosting
    sys_command.o(.text) refers (Special) to indicate_semi.o(.text) for __semihosting_library_function
    defsig_rtmem_outer.o(.text) refers to defsig_rtmem_inner.o(.text) for __rt_SIGRTMEM_inner
    defsig_rtmem_outer.o(.text) refers to defsig_exit.o(.text) for __sig_exit
    defsig_rtmem_formal.o(.text) refers to rt_raise.o(.text) for __rt_raise
    rt_raise.o(.text) refers to __raise.o(.text) for __raise
    rt_raise.o(.text) refers to usart.o(i._sys_exit) for _sys_exit
    defsig_exit.o(.text) refers to usart.o(i._sys_exit) for _sys_exit
    defsig_rtmem_inner.o(.text) refers to defsig_general.o(.text) for __default_signal_display
    __raise.o(.text) refers to defsig.o(CL$$defsig) for __default_signal_handler
    defsig_general.o(.text) refers to sys_wrch.o(.text) for _ttywrch
    sys_wrch.o(.text) refers (Special) to use_no_semi.o(.text) for __I$use$semihosting
    sys_wrch.o(.text) refers (Special) to indicate_semi.o(.text) for __semihosting_library_function
    defsig.o(CL$$defsig) refers to defsig_rtmem_inner.o(.text) for __rt_SIGRTMEM_inner
    defsig_abrt_inner.o(.text) refers to defsig_general.o(.text) for __default_signal_display
    defsig_fpe_inner.o(.text) refers to defsig_general.o(.text) for __default_signal_display
    defsig_rtred_inner.o(.text) refers to defsig_general.o(.text) for __default_signal_display
    defsig_stak_inner.o(.text) refers to defsig_general.o(.text) for __default_signal_display
    defsig_pvfn_inner.o(.text) refers to defsig_general.o(.text) for __default_signal_display
    defsig_cppl_inner.o(.text) refers to defsig_general.o(.text) for __default_signal_display
    defsig_segv_inner.o(.text) refers to defsig_general.o(.text) for __default_signal_display
    defsig_other.o(.text) refers to defsig_general.o(.text) for __default_signal_display


==============================================================================

Removing Unused input sections from the image.

    Removing core_cm3.o(.emb_text), (32 bytes).
    Removing exti.o(i.MX_EXTI1_Init), (82 bytes).
    Removing system_stm32f10x.o(i.SystemCoreClockUpdate), (164 bytes).
    Removing system_stm32f10x.o(.data), (20 bytes).
    Removing delay.o(i.delay_s), (26 bytes).
    Removing delay.o(i.delay_us), (68 bytes).
    Removing gpio.o(i.MX_GPIO_Init), (56 bytes).
    Removing gpio.o(i.MX_KeyInit), (44 bytes).
    Removing board_audio.o(i.board_audio_amp_set_pin_high), (40 bytes).
    Removing diskio.o(i.disk_writep), (6 bytes).
    Removing misc.o(i.NVIC_SetVectorTable), (20 bytes).
    Removing misc.o(i.NVIC_SystemLPConfig), (32 bytes).
    Removing stm32f10x_adc.o(i.ADC_AnalogWatchdogCmd), (20 bytes).
    Removing stm32f10x_adc.o(i.ADC_AnalogWatchdogSingleChannelConfig), (16 bytes).
    Removing stm32f10x_adc.o(i.ADC_AnalogWatchdogThresholdsConfig), (6 bytes).
    Removing stm32f10x_adc.o(i.ADC_AutoInjectedConvCmd), (22 bytes).
    Removing stm32f10x_adc.o(i.ADC_ClearFlag), (6 bytes).
    Removing stm32f10x_adc.o(i.ADC_ClearITPendingBit), (10 bytes).
    Removing stm32f10x_adc.o(i.ADC_Cmd), (22 bytes).
    Removing stm32f10x_adc.o(i.ADC_DMACmd), (22 bytes).
    Removing stm32f10x_adc.o(i.ADC_DeInit), (92 bytes).
    Removing stm32f10x_adc.o(i.ADC_DiscModeChannelCountConfig), (24 bytes).
    Removing stm32f10x_adc.o(i.ADC_DiscModeCmd), (22 bytes).
    Removing stm32f10x_adc.o(i.ADC_ExternalTrigConvCmd), (22 bytes).
    Removing stm32f10x_adc.o(i.ADC_ExternalTrigInjectedConvCmd), (22 bytes).
    Removing stm32f10x_adc.o(i.ADC_ExternalTrigInjectedConvConfig), (16 bytes).
    Removing stm32f10x_adc.o(i.ADC_GetCalibrationStatus), (20 bytes).
    Removing stm32f10x_adc.o(i.ADC_GetConversionValue), (8 bytes).
    Removing stm32f10x_adc.o(i.ADC_GetDualModeConversionValue), (12 bytes).
    Removing stm32f10x_adc.o(i.ADC_GetFlagStatus), (18 bytes).
    Removing stm32f10x_adc.o(i.ADC_GetITStatus), (36 bytes).
    Removing stm32f10x_adc.o(i.ADC_GetInjectedConversionValue), (28 bytes).
    Removing stm32f10x_adc.o(i.ADC_GetResetCalibrationStatus), (20 bytes).
    Removing stm32f10x_adc.o(i.ADC_GetSoftwareStartConvStatus), (20 bytes).
    Removing stm32f10x_adc.o(i.ADC_GetSoftwareStartInjectedConvCmdStatus), (20 bytes).
    Removing stm32f10x_adc.o(i.ADC_ITConfig), (24 bytes).
    Removing stm32f10x_adc.o(i.ADC_Init), (80 bytes).
    Removing stm32f10x_adc.o(i.ADC_InjectedChannelConfig), (130 bytes).
    Removing stm32f10x_adc.o(i.ADC_InjectedDiscModeCmd), (22 bytes).
    Removing stm32f10x_adc.o(i.ADC_InjectedSequencerLengthConfig), (24 bytes).
    Removing stm32f10x_adc.o(i.ADC_RegularChannelConfig), (184 bytes).
    Removing stm32f10x_adc.o(i.ADC_ResetCalibration), (10 bytes).
    Removing stm32f10x_adc.o(i.ADC_SetInjectedOffset), (20 bytes).
    Removing stm32f10x_adc.o(i.ADC_SoftwareStartConvCmd), (22 bytes).
    Removing stm32f10x_adc.o(i.ADC_SoftwareStartInjectedConvCmd), (22 bytes).
    Removing stm32f10x_adc.o(i.ADC_StartCalibration), (10 bytes).
    Removing stm32f10x_adc.o(i.ADC_StructInit), (18 bytes).
    Removing stm32f10x_adc.o(i.ADC_TempSensorVrefintCmd), (36 bytes).
    Removing stm32f10x_bkp.o(i.BKP_ClearFlag), (20 bytes).
    Removing stm32f10x_bkp.o(i.BKP_ClearITPendingBit), (20 bytes).
    Removing stm32f10x_bkp.o(i.BKP_DeInit), (16 bytes).
    Removing stm32f10x_bkp.o(i.BKP_GetFlagStatus), (12 bytes).
    Removing stm32f10x_bkp.o(i.BKP_GetITStatus), (12 bytes).
    Removing stm32f10x_bkp.o(i.BKP_ITConfig), (12 bytes).
    Removing stm32f10x_bkp.o(i.BKP_RTCOutputConfig), (28 bytes).
    Removing stm32f10x_bkp.o(i.BKP_ReadBackupRegister), (28 bytes).
    Removing stm32f10x_bkp.o(i.BKP_SetRTCCalibrationValue), (28 bytes).
    Removing stm32f10x_bkp.o(i.BKP_TamperPinCmd), (12 bytes).
    Removing stm32f10x_bkp.o(i.BKP_TamperPinLevelConfig), (12 bytes).
    Removing stm32f10x_bkp.o(i.BKP_WriteBackupRegister), (28 bytes).
    Removing stm32f10x_can.o(i.CAN_CancelTransmit), (48 bytes).
    Removing stm32f10x_can.o(i.CAN_ClearFlag), (56 bytes).
    Removing stm32f10x_can.o(i.CAN_ClearITPendingBit), (168 bytes).
    Removing stm32f10x_can.o(i.CAN_DBGFreeze), (22 bytes).
    Removing stm32f10x_can.o(i.CAN_DeInit), (56 bytes).
    Removing stm32f10x_can.o(i.CAN_FIFORelease), (22 bytes).
    Removing stm32f10x_can.o(i.CAN_FilterInit), (264 bytes).
    Removing stm32f10x_can.o(i.CAN_GetFlagStatus), (120 bytes).
    Removing stm32f10x_can.o(i.CAN_GetITStatus), (288 bytes).
    Removing stm32f10x_can.o(i.CAN_GetLSBTransmitErrorCounter), (12 bytes).
    Removing stm32f10x_can.o(i.CAN_GetLastErrorCode), (12 bytes).
    Removing stm32f10x_can.o(i.CAN_GetReceiveErrorCounter), (10 bytes).
    Removing stm32f10x_can.o(i.CAN_ITConfig), (18 bytes).
    Removing stm32f10x_can.o(i.CAN_Init), (276 bytes).
    Removing stm32f10x_can.o(i.CAN_MessagePending), (30 bytes).
    Removing stm32f10x_can.o(i.CAN_OperatingModeRequest), (162 bytes).
    Removing stm32f10x_can.o(i.CAN_Receive), (240 bytes).
    Removing stm32f10x_can.o(i.CAN_SlaveStartBank), (52 bytes).
    Removing stm32f10x_can.o(i.CAN_Sleep), (30 bytes).
    Removing stm32f10x_can.o(i.CAN_StructInit), (32 bytes).
    Removing stm32f10x_can.o(i.CAN_TTComModeCmd), (118 bytes).
    Removing stm32f10x_can.o(i.CAN_Transmit), (294 bytes).
    Removing stm32f10x_can.o(i.CAN_TransmitStatus), (160 bytes).
    Removing stm32f10x_can.o(i.CAN_WakeUp), (48 bytes).
    Removing stm32f10x_can.o(i.CheckITStatus), (18 bytes).
    Removing stm32f10x_cec.o(i.CEC_ClearFlag), (36 bytes).
    Removing stm32f10x_cec.o(i.CEC_ClearITPendingBit), (36 bytes).
    Removing stm32f10x_cec.o(i.CEC_Cmd), (32 bytes).
    Removing stm32f10x_cec.o(i.CEC_DeInit), (22 bytes).
    Removing stm32f10x_cec.o(i.CEC_EndOfMessageCmd), (12 bytes).
    Removing stm32f10x_cec.o(i.CEC_GetFlagStatus), (48 bytes).
    Removing stm32f10x_cec.o(i.CEC_GetITStatus), (40 bytes).
    Removing stm32f10x_cec.o(i.CEC_ITConfig), (12 bytes).
    Removing stm32f10x_cec.o(i.CEC_Init), (32 bytes).
    Removing stm32f10x_cec.o(i.CEC_OwnAddressConfig), (12 bytes).
    Removing stm32f10x_cec.o(i.CEC_ReceiveDataByte), (12 bytes).
    Removing stm32f10x_cec.o(i.CEC_SendDataByte), (12 bytes).
    Removing stm32f10x_cec.o(i.CEC_SetPrescaler), (12 bytes).
    Removing stm32f10x_cec.o(i.CEC_StartOfMessage), (12 bytes).
    Removing stm32f10x_crc.o(i.CRC_CalcBlockCRC), (36 bytes).
    Removing stm32f10x_crc.o(i.CRC_CalcCRC), (16 bytes).
    Removing stm32f10x_crc.o(i.CRC_GetCRC), (12 bytes).
    Removing stm32f10x_crc.o(i.CRC_GetIDRegister), (12 bytes).
    Removing stm32f10x_crc.o(i.CRC_ResetDR), (12 bytes).
    Removing stm32f10x_crc.o(i.CRC_SetIDRegister), (12 bytes).
    Removing stm32f10x_dac.o(i.DAC_Cmd), (40 bytes).
    Removing stm32f10x_dac.o(i.DAC_DMACmd), (44 bytes).
    Removing stm32f10x_dac.o(i.DAC_DeInit), (22 bytes).
    Removing stm32f10x_dac.o(i.DAC_DualSoftwareTriggerCmd), (36 bytes).
    Removing stm32f10x_dac.o(i.DAC_GetDataOutputValue), (36 bytes).
    Removing stm32f10x_dac.o(i.DAC_Init), (52 bytes).
    Removing stm32f10x_dac.o(i.DAC_SetChannel1Data), (32 bytes).
    Removing stm32f10x_dac.o(i.DAC_SetChannel2Data), (32 bytes).
    Removing stm32f10x_dac.o(i.DAC_SetDualChannelData), (36 bytes).
    Removing stm32f10x_dac.o(i.DAC_SoftwareTriggerCmd), (44 bytes).
    Removing stm32f10x_dac.o(i.DAC_StructInit), (12 bytes).
    Removing stm32f10x_dac.o(i.DAC_WaveGenerationCmd), (40 bytes).
    Removing stm32f10x_dbgmcu.o(i.DBGMCU_Config), (32 bytes).
    Removing stm32f10x_dbgmcu.o(i.DBGMCU_GetDEVID), (16 bytes).
    Removing stm32f10x_dbgmcu.o(i.DBGMCU_GetREVID), (12 bytes).
    Removing stm32f10x_dma.o(i.DMA_ClearFlag), (28 bytes).
    Removing stm32f10x_dma.o(i.DMA_ClearITPendingBit), (28 bytes).
    Removing stm32f10x_dma.o(i.DMA_Cmd), (24 bytes).
    Removing stm32f10x_dma.o(i.DMA_DeInit), (332 bytes).
    Removing stm32f10x_dma.o(i.DMA_GetCurrDataCounter), (8 bytes).
    Removing stm32f10x_dma.o(i.DMA_GetFlagStatus), (44 bytes).
    Removing stm32f10x_dma.o(i.DMA_GetITStatus), (44 bytes).
    Removing stm32f10x_dma.o(i.DMA_ITConfig), (18 bytes).
    Removing stm32f10x_dma.o(i.DMA_Init), (60 bytes).
    Removing stm32f10x_dma.o(i.DMA_SetCurrDataCounter), (4 bytes).
    Removing stm32f10x_dma.o(i.DMA_StructInit), (26 bytes).
    Removing stm32f10x_exti.o(i.EXTI_ClearFlag), (12 bytes).
    Removing stm32f10x_exti.o(i.EXTI_DeInit), (36 bytes).
    Removing stm32f10x_exti.o(i.EXTI_GenerateSWInterrupt), (16 bytes).
    Removing stm32f10x_exti.o(i.EXTI_GetFlagStatus), (24 bytes).
    Removing stm32f10x_exti.o(i.EXTI_GetITStatus), (40 bytes).
    Removing stm32f10x_exti.o(i.EXTI_Init), (148 bytes).
    Removing stm32f10x_exti.o(i.EXTI_StructInit), (16 bytes).
    Removing stm32f10x_flash.o(i.FLASH_ClearFlag), (12 bytes).
    Removing stm32f10x_flash.o(i.FLASH_EnableWriteProtection), (196 bytes).
    Removing stm32f10x_flash.o(i.FLASH_EraseAllBank1Pages), (72 bytes).
    Removing stm32f10x_flash.o(i.FLASH_EraseAllPages), (72 bytes).
    Removing stm32f10x_flash.o(i.FLASH_EraseOptionBytes), (168 bytes).
    Removing stm32f10x_flash.o(i.FLASH_ErasePage), (76 bytes).
    Removing stm32f10x_flash.o(i.FLASH_GetBank1Status), (52 bytes).
    Removing stm32f10x_flash.o(i.FLASH_GetFlagStatus), (48 bytes).
    Removing stm32f10x_flash.o(i.FLASH_GetPrefetchBufferStatus), (24 bytes).
    Removing stm32f10x_flash.o(i.FLASH_GetReadOutProtectionStatus), (24 bytes).
    Removing stm32f10x_flash.o(i.FLASH_GetStatus), (52 bytes).
    Removing stm32f10x_flash.o(i.FLASH_GetUserOptionByte), (12 bytes).
    Removing stm32f10x_flash.o(i.FLASH_GetWriteProtectionOptionByte), (12 bytes).
    Removing stm32f10x_flash.o(i.FLASH_HalfCycleAccessCmd), (28 bytes).
    Removing stm32f10x_flash.o(i.FLASH_ITConfig), (32 bytes).
    Removing stm32f10x_flash.o(i.FLASH_Lock), (20 bytes).
    Removing stm32f10x_flash.o(i.FLASH_LockBank1), (20 bytes).
    Removing stm32f10x_flash.o(i.FLASH_PrefetchBufferCmd), (28 bytes).
    Removing stm32f10x_flash.o(i.FLASH_ProgramHalfWord), (64 bytes).
    Removing stm32f10x_flash.o(i.FLASH_ProgramOptionByteData), (84 bytes).
    Removing stm32f10x_flash.o(i.FLASH_ProgramWord), (108 bytes).
    Removing stm32f10x_flash.o(i.FLASH_ReadOutProtection), (172 bytes).
    Removing stm32f10x_flash.o(i.FLASH_SetLatency), (24 bytes).
    Removing stm32f10x_flash.o(i.FLASH_Unlock), (24 bytes).
    Removing stm32f10x_flash.o(i.FLASH_UnlockBank1), (24 bytes).
    Removing stm32f10x_flash.o(i.FLASH_UserOptionByteConfig), (104 bytes).
    Removing stm32f10x_flash.o(i.FLASH_WaitForLastBank1Operation), (38 bytes).
    Removing stm32f10x_flash.o(i.FLASH_WaitForLastOperation), (38 bytes).
    Removing stm32f10x_fsmc.o(i.FSMC_ClearFlag), (64 bytes).
    Removing stm32f10x_fsmc.o(i.FSMC_ClearITPendingBit), (72 bytes).
    Removing stm32f10x_fsmc.o(i.FSMC_GetECC), (28 bytes).
    Removing stm32f10x_fsmc.o(i.FSMC_GetFlagStatus), (56 bytes).
    Removing stm32f10x_fsmc.o(i.FSMC_GetITStatus), (68 bytes).
    Removing stm32f10x_fsmc.o(i.FSMC_ITConfig), (128 bytes).
    Removing stm32f10x_fsmc.o(i.FSMC_NANDCmd), (92 bytes).
    Removing stm32f10x_fsmc.o(i.FSMC_NANDDeInit), (68 bytes).
    Removing stm32f10x_fsmc.o(i.FSMC_NANDECCCmd), (92 bytes).
    Removing stm32f10x_fsmc.o(i.FSMC_NANDInit), (136 bytes).
    Removing stm32f10x_fsmc.o(i.FSMC_NANDStructInit), (54 bytes).
    Removing stm32f10x_fsmc.o(i.FSMC_NORSRAMCmd), (52 bytes).
    Removing stm32f10x_fsmc.o(i.FSMC_NORSRAMDeInit), (54 bytes).
    Removing stm32f10x_fsmc.o(i.FSMC_NORSRAMInit), (230 bytes).
    Removing stm32f10x_fsmc.o(i.FSMC_NORSRAMStructInit), (114 bytes).
    Removing stm32f10x_fsmc.o(i.FSMC_PCCARDCmd), (48 bytes).
    Removing stm32f10x_fsmc.o(i.FSMC_PCCARDDeInit), (40 bytes).
    Removing stm32f10x_fsmc.o(i.FSMC_PCCARDInit), (132 bytes).
    Removing stm32f10x_fsmc.o(i.FSMC_PCCARDStructInit), (60 bytes).
    Removing stm32f10x_gpio.o(i.GPIO_AFIODeInit), (20 bytes).
    Removing stm32f10x_gpio.o(i.GPIO_DeInit), (200 bytes).
    Removing stm32f10x_gpio.o(i.GPIO_ETH_MediaInterfaceConfig), (12 bytes).
    Removing stm32f10x_gpio.o(i.GPIO_EXTILineConfig), (64 bytes).
    Removing stm32f10x_gpio.o(i.GPIO_EventOutputCmd), (12 bytes).
    Removing stm32f10x_gpio.o(i.GPIO_EventOutputConfig), (32 bytes).
    Removing stm32f10x_gpio.o(i.GPIO_PinLockConfig), (18 bytes).
    Removing stm32f10x_gpio.o(i.GPIO_ReadInputData), (8 bytes).
    Removing stm32f10x_gpio.o(i.GPIO_ReadOutputData), (8 bytes).
    Removing stm32f10x_gpio.o(i.GPIO_StructInit), (16 bytes).
    Removing stm32f10x_gpio.o(i.GPIO_Write), (4 bytes).
    Removing stm32f10x_i2c.o(i.I2C_ARPCmd), (24 bytes).
    Removing stm32f10x_i2c.o(i.I2C_AcknowledgeConfig), (24 bytes).
    Removing stm32f10x_i2c.o(i.I2C_CalculatePEC), (24 bytes).
    Removing stm32f10x_i2c.o(i.I2C_CheckEvent), (42 bytes).
    Removing stm32f10x_i2c.o(i.I2C_ClearFlag), (12 bytes).
    Removing stm32f10x_i2c.o(i.I2C_ClearITPendingBit), (12 bytes).
    Removing stm32f10x_i2c.o(i.I2C_Cmd), (24 bytes).
    Removing stm32f10x_i2c.o(i.I2C_DMACmd), (24 bytes).
    Removing stm32f10x_i2c.o(i.I2C_DMALastTransferCmd), (24 bytes).
    Removing stm32f10x_i2c.o(i.I2C_DeInit), (56 bytes).
    Removing stm32f10x_i2c.o(i.I2C_DualAddressCmd), (24 bytes).
    Removing stm32f10x_i2c.o(i.I2C_FastModeDutyCycleConfig), (28 bytes).
    Removing stm32f10x_i2c.o(i.I2C_GeneralCallCmd), (24 bytes).
    Removing stm32f10x_i2c.o(i.I2C_GenerateSTART), (24 bytes).
    Removing stm32f10x_i2c.o(i.I2C_GenerateSTOP), (24 bytes).
    Removing stm32f10x_i2c.o(i.I2C_GetFlagStatus), (58 bytes).
    Removing stm32f10x_i2c.o(i.I2C_GetITStatus), (38 bytes).
    Removing stm32f10x_i2c.o(i.I2C_GetLastEvent), (26 bytes).
    Removing stm32f10x_i2c.o(i.I2C_GetPEC), (8 bytes).
    Removing stm32f10x_i2c.o(i.I2C_ITConfig), (18 bytes).
    Removing stm32f10x_i2c.o(i.I2C_Init), (236 bytes).
    Removing stm32f10x_i2c.o(i.I2C_NACKPositionConfig), (28 bytes).
    Removing stm32f10x_i2c.o(i.I2C_OwnAddress2Config), (22 bytes).
    Removing stm32f10x_i2c.o(i.I2C_PECPositionConfig), (28 bytes).
    Removing stm32f10x_i2c.o(i.I2C_ReadRegister), (22 bytes).
    Removing stm32f10x_i2c.o(i.I2C_ReceiveData), (8 bytes).
    Removing stm32f10x_i2c.o(i.I2C_SMBusAlertConfig), (28 bytes).
    Removing stm32f10x_i2c.o(i.I2C_Send7bitAddress), (18 bytes).
    Removing stm32f10x_i2c.o(i.I2C_SendData), (4 bytes).
    Removing stm32f10x_i2c.o(i.I2C_SoftwareResetCmd), (22 bytes).
    Removing stm32f10x_i2c.o(i.I2C_StretchClockCmd), (24 bytes).
    Removing stm32f10x_i2c.o(i.I2C_StructInit), (30 bytes).
    Removing stm32f10x_i2c.o(i.I2C_TransmitPEC), (24 bytes).
    Removing stm32f10x_iwdg.o(i.IWDG_Enable), (16 bytes).
    Removing stm32f10x_iwdg.o(i.IWDG_GetFlagStatus), (24 bytes).
    Removing stm32f10x_iwdg.o(i.IWDG_ReloadCounter), (16 bytes).
    Removing stm32f10x_iwdg.o(i.IWDG_SetPrescaler), (12 bytes).
    Removing stm32f10x_iwdg.o(i.IWDG_SetReload), (12 bytes).
    Removing stm32f10x_iwdg.o(i.IWDG_WriteAccessCmd), (12 bytes).
    Removing stm32f10x_pwr.o(i.PWR_BackupAccessCmd), (12 bytes).
    Removing stm32f10x_pwr.o(i.PWR_ClearFlag), (20 bytes).
    Removing stm32f10x_pwr.o(i.PWR_DeInit), (22 bytes).
    Removing stm32f10x_pwr.o(i.PWR_EnterSTANDBYMode), (52 bytes).
    Removing stm32f10x_pwr.o(i.PWR_EnterSTOPMode), (64 bytes).
    Removing stm32f10x_pwr.o(i.PWR_GetFlagStatus), (24 bytes).
    Removing stm32f10x_pwr.o(i.PWR_PVDCmd), (12 bytes).
    Removing stm32f10x_pwr.o(i.PWR_PVDLevelConfig), (24 bytes).
    Removing stm32f10x_pwr.o(i.PWR_WakeUpPinCmd), (12 bytes).
    Removing stm32f10x_rcc.o(i.RCC_ADCCLKConfig), (24 bytes).
    Removing stm32f10x_rcc.o(i.RCC_AdjustHSICalibrationValue), (24 bytes).
    Removing stm32f10x_rcc.o(i.RCC_BackupResetCmd), (12 bytes).
    Removing stm32f10x_rcc.o(i.RCC_ClearFlag), (20 bytes).
    Removing stm32f10x_rcc.o(i.RCC_ClearITPendingBit), (12 bytes).
    Removing stm32f10x_rcc.o(i.RCC_ClockSecuritySystemCmd), (12 bytes).
    Removing stm32f10x_rcc.o(i.RCC_DeInit), (76 bytes).
    Removing stm32f10x_rcc.o(i.RCC_GetFlagStatus), (60 bytes).
    Removing stm32f10x_rcc.o(i.RCC_GetITStatus), (24 bytes).
    Removing stm32f10x_rcc.o(i.RCC_GetSYSCLKSource), (16 bytes).
    Removing stm32f10x_rcc.o(i.RCC_HCLKConfig), (24 bytes).
    Removing stm32f10x_rcc.o(i.RCC_HSEConfig), (76 bytes).
    Removing stm32f10x_rcc.o(i.RCC_HSICmd), (12 bytes).
    Removing stm32f10x_rcc.o(i.RCC_ITConfig), (32 bytes).
    Removing stm32f10x_rcc.o(i.RCC_LSEConfig), (52 bytes).
    Removing stm32f10x_rcc.o(i.RCC_LSICmd), (12 bytes).
    Removing stm32f10x_rcc.o(i.RCC_MCOConfig), (12 bytes).
    Removing stm32f10x_rcc.o(i.RCC_PCLK1Config), (24 bytes).
    Removing stm32f10x_rcc.o(i.RCC_PCLK2Config), (24 bytes).
    Removing stm32f10x_rcc.o(i.RCC_PLLCmd), (12 bytes).
    Removing stm32f10x_rcc.o(i.RCC_PLLConfig), (28 bytes).
    Removing stm32f10x_rcc.o(i.RCC_RTCCLKCmd), (12 bytes).
    Removing stm32f10x_rcc.o(i.RCC_RTCCLKConfig), (16 bytes).
    Removing stm32f10x_rcc.o(i.RCC_SYSCLKConfig), (24 bytes).
    Removing stm32f10x_rcc.o(i.RCC_USBCLKConfig), (12 bytes).
    Removing stm32f10x_rcc.o(i.RCC_WaitForHSEStartUp), (56 bytes).
    Removing stm32f10x_rtc.o(i.RTC_ClearFlag), (16 bytes).
    Removing stm32f10x_rtc.o(i.RTC_ClearITPendingBit), (16 bytes).
    Removing stm32f10x_rtc.o(i.RTC_EnterConfigMode), (20 bytes).
    Removing stm32f10x_rtc.o(i.RTC_ExitConfigMode), (20 bytes).
    Removing stm32f10x_rtc.o(i.RTC_GetCounter), (20 bytes).
    Removing stm32f10x_rtc.o(i.RTC_GetDivider), (24 bytes).
    Removing stm32f10x_rtc.o(i.RTC_GetFlagStatus), (24 bytes).
    Removing stm32f10x_rtc.o(i.RTC_GetITStatus), (36 bytes).
    Removing stm32f10x_rtc.o(i.RTC_ITConfig), (32 bytes).
    Removing stm32f10x_rtc.o(i.RTC_SetAlarm), (28 bytes).
    Removing stm32f10x_rtc.o(i.RTC_SetCounter), (28 bytes).
    Removing stm32f10x_rtc.o(i.RTC_SetPrescaler), (32 bytes).
    Removing stm32f10x_rtc.o(i.RTC_WaitForLastTask), (20 bytes).
    Removing stm32f10x_rtc.o(i.RTC_WaitForSynchro), (36 bytes).
    Removing stm32f10x_sdio.o(i.SDIO_CEATAITCmd), (16 bytes).
    Removing stm32f10x_sdio.o(i.SDIO_ClearITPendingBit), (12 bytes).
    Removing stm32f10x_sdio.o(i.SDIO_CmdStructInit), (14 bytes).
    Removing stm32f10x_sdio.o(i.SDIO_CommandCompletionCmd), (12 bytes).
    Removing stm32f10x_sdio.o(i.SDIO_DMACmd), (12 bytes).
    Removing stm32f10x_sdio.o(i.SDIO_DataStructInit), (20 bytes).
    Removing stm32f10x_sdio.o(i.SDIO_GetDataCounter), (12 bytes).
    Removing stm32f10x_sdio.o(i.SDIO_GetFIFOCount), (12 bytes).
    Removing stm32f10x_sdio.o(i.SDIO_GetITStatus), (24 bytes).
    Removing stm32f10x_sdio.o(i.SDIO_GetPowerState), (16 bytes).
    Removing stm32f10x_sdio.o(i.SDIO_ITConfig), (32 bytes).
    Removing stm32f10x_sdio.o(i.SDIO_SendCEATACmd), (12 bytes).
    Removing stm32f10x_sdio.o(i.SDIO_SendSDIOSuspendCmd), (12 bytes).
    Removing stm32f10x_sdio.o(i.SDIO_SetSDIOOperation), (12 bytes).
    Removing stm32f10x_sdio.o(i.SDIO_SetSDIOReadWaitMode), (12 bytes).
    Removing stm32f10x_sdio.o(i.SDIO_StartSDIOReadWait), (12 bytes).
    Removing stm32f10x_sdio.o(i.SDIO_StopSDIOReadWait), (12 bytes).
    Removing stm32f10x_sdio.o(i.SDIO_StructInit), (16 bytes).
    Removing stm32f10x_sdio.o(i.SDIO_WriteData), (12 bytes).
    Removing stm32f10x_spi.o(i.I2S_StructInit), (20 bytes).
    Removing stm32f10x_spi.o(i.SPI_BiDirectionalLineConfig), (28 bytes).
    Removing stm32f10x_spi.o(i.SPI_CalculateCRC), (24 bytes).
    Removing stm32f10x_spi.o(i.SPI_Cmd), (24 bytes).
    Removing stm32f10x_spi.o(i.SPI_DataSizeConfig), (18 bytes).
    Removing stm32f10x_spi.o(i.SPI_GetCRC), (16 bytes).
    Removing stm32f10x_spi.o(i.SPI_GetCRCPolynomial), (6 bytes).
    Removing stm32f10x_spi.o(i.SPI_I2S_ClearFlag), (6 bytes).
    Removing stm32f10x_spi.o(i.SPI_I2S_ClearITPendingBit), (20 bytes).
    Removing stm32f10x_spi.o(i.SPI_I2S_DMACmd), (18 bytes).
    Removing stm32f10x_spi.o(i.SPI_I2S_GetITStatus), (52 bytes).
    Removing stm32f10x_spi.o(i.SPI_I2S_ITConfig), (32 bytes).
    Removing stm32f10x_spi.o(i.SPI_Init), (60 bytes).
    Removing stm32f10x_spi.o(i.SPI_NSSInternalSoftwareConfig), (30 bytes).
    Removing stm32f10x_spi.o(i.SPI_SSOutputCmd), (24 bytes).
    Removing stm32f10x_spi.o(i.SPI_StructInit), (24 bytes).
    Removing stm32f10x_spi.o(i.SPI_TransmitCRC), (10 bytes).
    Removing stm32f10x_tim.o(i.TI1_Config), (128 bytes).
    Removing stm32f10x_tim.o(i.TI2_Config), (152 bytes).
    Removing stm32f10x_tim.o(i.TI3_Config), (144 bytes).
    Removing stm32f10x_tim.o(i.TI4_Config), (152 bytes).
    Removing stm32f10x_tim.o(i.TIM_ARRPreloadConfig), (24 bytes).
    Removing stm32f10x_tim.o(i.TIM_BDTRConfig), (32 bytes).
    Removing stm32f10x_tim.o(i.TIM_BDTRStructInit), (18 bytes).
    Removing stm32f10x_tim.o(i.TIM_CCPreloadControl), (24 bytes).
    Removing stm32f10x_tim.o(i.TIM_CCxCmd), (30 bytes).
    Removing stm32f10x_tim.o(i.TIM_CCxNCmd), (30 bytes).
    Removing stm32f10x_tim.o(i.TIM_ClearFlag), (6 bytes).
    Removing stm32f10x_tim.o(i.TIM_ClearITPendingBit), (6 bytes).
    Removing stm32f10x_tim.o(i.TIM_ClearOC1Ref), (18 bytes).
    Removing stm32f10x_tim.o(i.TIM_ClearOC2Ref), (24 bytes).
    Removing stm32f10x_tim.o(i.TIM_ClearOC3Ref), (18 bytes).
    Removing stm32f10x_tim.o(i.TIM_ClearOC4Ref), (24 bytes).
    Removing stm32f10x_tim.o(i.TIM_Cmd), (24 bytes).
    Removing stm32f10x_tim.o(i.TIM_CounterModeConfig), (18 bytes).
    Removing stm32f10x_tim.o(i.TIM_CtrlPWMOutputs), (30 bytes).
    Removing stm32f10x_tim.o(i.TIM_DMACmd), (18 bytes).
    Removing stm32f10x_tim.o(i.TIM_DMAConfig), (10 bytes).
    Removing stm32f10x_tim.o(i.TIM_DeInit), (488 bytes).
    Removing stm32f10x_tim.o(i.TIM_ETRClockMode1Config), (54 bytes).
    Removing stm32f10x_tim.o(i.TIM_ETRClockMode2Config), (32 bytes).
    Removing stm32f10x_tim.o(i.TIM_ETRConfig), (28 bytes).
    Removing stm32f10x_tim.o(i.TIM_EncoderInterfaceConfig), (66 bytes).
    Removing stm32f10x_tim.o(i.TIM_ForcedOC1Config), (18 bytes).
    Removing stm32f10x_tim.o(i.TIM_ForcedOC2Config), (26 bytes).
    Removing stm32f10x_tim.o(i.TIM_ForcedOC3Config), (18 bytes).
    Removing stm32f10x_tim.o(i.TIM_ForcedOC4Config), (26 bytes).
    Removing stm32f10x_tim.o(i.TIM_GenerateEvent), (4 bytes).
    Removing stm32f10x_tim.o(i.TIM_GetCapture1), (6 bytes).
    Removing stm32f10x_tim.o(i.TIM_GetCapture2), (6 bytes).
    Removing stm32f10x_tim.o(i.TIM_GetCapture3), (6 bytes).
    Removing stm32f10x_tim.o(i.TIM_GetCapture4), (8 bytes).
    Removing stm32f10x_tim.o(i.TIM_GetCounter), (6 bytes).
    Removing stm32f10x_tim.o(i.TIM_GetFlagStatus), (18 bytes).
    Removing stm32f10x_tim.o(i.TIM_GetITStatus), (34 bytes).
    Removing stm32f10x_tim.o(i.TIM_GetPrescaler), (6 bytes).
    Removing stm32f10x_tim.o(i.TIM_ICInit), (172 bytes).
    Removing stm32f10x_tim.o(i.TIM_ICStructInit), (18 bytes).
    Removing stm32f10x_tim.o(i.TIM_ITConfig), (18 bytes).
    Removing stm32f10x_tim.o(i.TIM_ITRxExternalClockConfig), (24 bytes).
    Removing stm32f10x_tim.o(i.TIM_InternalClockConfig), (12 bytes).
    Removing stm32f10x_tim.o(i.TIM_OC1FastConfig), (18 bytes).
    Removing stm32f10x_tim.o(i.TIM_OC1Init), (152 bytes).
    Removing stm32f10x_tim.o(i.TIM_OC1NPolarityConfig), (18 bytes).
    Removing stm32f10x_tim.o(i.TIM_OC1PolarityConfig), (18 bytes).
    Removing stm32f10x_tim.o(i.TIM_OC1PreloadConfig), (18 bytes).
    Removing stm32f10x_tim.o(i.TIM_OC2FastConfig), (26 bytes).
    Removing stm32f10x_tim.o(i.TIM_OC2Init), (164 bytes).
    Removing stm32f10x_tim.o(i.TIM_OC2NPolarityConfig), (26 bytes).
    Removing stm32f10x_tim.o(i.TIM_OC2PolarityConfig), (26 bytes).
    Removing stm32f10x_tim.o(i.TIM_OC2PreloadConfig), (26 bytes).
    Removing stm32f10x_tim.o(i.TIM_OC3FastConfig), (18 bytes).
    Removing stm32f10x_tim.o(i.TIM_OC3Init), (160 bytes).
    Removing stm32f10x_tim.o(i.TIM_OC3NPolarityConfig), (26 bytes).
    Removing stm32f10x_tim.o(i.TIM_OC3PolarityConfig), (26 bytes).
    Removing stm32f10x_tim.o(i.TIM_OC3PreloadConfig), (18 bytes).
    Removing stm32f10x_tim.o(i.TIM_OC4FastConfig), (26 bytes).
    Removing stm32f10x_tim.o(i.TIM_OC4Init), (124 bytes).
    Removing stm32f10x_tim.o(i.TIM_OC4PolarityConfig), (26 bytes).
    Removing stm32f10x_tim.o(i.TIM_OC4PreloadConfig), (26 bytes).
    Removing stm32f10x_tim.o(i.TIM_OCStructInit), (20 bytes).
    Removing stm32f10x_tim.o(i.TIM_PWMIConfig), (124 bytes).
    Removing stm32f10x_tim.o(i.TIM_PrescalerConfig), (6 bytes).
    Removing stm32f10x_tim.o(i.TIM_SelectCCDMA), (24 bytes).
    Removing stm32f10x_tim.o(i.TIM_SelectCOM), (24 bytes).
    Removing stm32f10x_tim.o(i.TIM_SelectHallSensor), (24 bytes).
    Removing stm32f10x_tim.o(i.TIM_SelectInputTrigger), (18 bytes).
    Removing stm32f10x_tim.o(i.TIM_SelectMasterSlaveMode), (18 bytes).
    Removing stm32f10x_tim.o(i.TIM_SelectOCxM), (82 bytes).
    Removing stm32f10x_tim.o(i.TIM_SelectOnePulseMode), (18 bytes).
    Removing stm32f10x_tim.o(i.TIM_SelectOutputTrigger), (18 bytes).
    Removing stm32f10x_tim.o(i.TIM_SelectSlaveMode), (18 bytes).
    Removing stm32f10x_tim.o(i.TIM_SetAutoreload), (4 bytes).
    Removing stm32f10x_tim.o(i.TIM_SetClockDivision), (18 bytes).
    Removing stm32f10x_tim.o(i.TIM_SetCompare1), (4 bytes).
    Removing stm32f10x_tim.o(i.TIM_SetCompare2), (4 bytes).
    Removing stm32f10x_tim.o(i.TIM_SetCompare3), (4 bytes).
    Removing stm32f10x_tim.o(i.TIM_SetCompare4), (6 bytes).
    Removing stm32f10x_tim.o(i.TIM_SetCounter), (4 bytes).
    Removing stm32f10x_tim.o(i.TIM_SetIC1Prescaler), (18 bytes).
    Removing stm32f10x_tim.o(i.TIM_SetIC2Prescaler), (26 bytes).
    Removing stm32f10x_tim.o(i.TIM_SetIC3Prescaler), (18 bytes).
    Removing stm32f10x_tim.o(i.TIM_SetIC4Prescaler), (26 bytes).
    Removing stm32f10x_tim.o(i.TIM_TIxExternalClockConfig), (62 bytes).
    Removing stm32f10x_tim.o(i.TIM_TimeBaseInit), (164 bytes).
    Removing stm32f10x_tim.o(i.TIM_TimeBaseStructInit), (18 bytes).
    Removing stm32f10x_tim.o(i.TIM_UpdateDisableConfig), (24 bytes).
    Removing stm32f10x_tim.o(i.TIM_UpdateRequestConfig), (24 bytes).
    Removing stm32f10x_usart.o(i.USART_ClearFlag), (18 bytes).
    Removing stm32f10x_usart.o(i.USART_ClearITPendingBit), (30 bytes).
    Removing stm32f10x_usart.o(i.USART_ClockInit), (34 bytes).
    Removing stm32f10x_usart.o(i.USART_ClockStructInit), (12 bytes).
    Removing stm32f10x_usart.o(i.USART_DMACmd), (18 bytes).
    Removing stm32f10x_usart.o(i.USART_DeInit), (156 bytes).
    Removing stm32f10x_usart.o(i.USART_GetFlagStatus), (26 bytes).
    Removing stm32f10x_usart.o(i.USART_HalfDuplexCmd), (24 bytes).
    Removing stm32f10x_usart.o(i.USART_IrDACmd), (24 bytes).
    Removing stm32f10x_usart.o(i.USART_IrDAConfig), (18 bytes).
    Removing stm32f10x_usart.o(i.USART_LINBreakDetectLengthConfig), (18 bytes).
    Removing stm32f10x_usart.o(i.USART_LINCmd), (24 bytes).
    Removing stm32f10x_usart.o(i.USART_OneBitMethodCmd), (24 bytes).
    Removing stm32f10x_usart.o(i.USART_OverSampling8Cmd), (22 bytes).
    Removing stm32f10x_usart.o(i.USART_ReceiverWakeUpCmd), (24 bytes).
    Removing stm32f10x_usart.o(i.USART_SendBreak), (10 bytes).
    Removing stm32f10x_usart.o(i.USART_SendData), (8 bytes).
    Removing stm32f10x_usart.o(i.USART_SetAddress), (18 bytes).
    Removing stm32f10x_usart.o(i.USART_SetGuardTime), (16 bytes).
    Removing stm32f10x_usart.o(i.USART_SetPrescaler), (16 bytes).
    Removing stm32f10x_usart.o(i.USART_SmartCardCmd), (24 bytes).
    Removing stm32f10x_usart.o(i.USART_SmartCardNACKCmd), (24 bytes).
    Removing stm32f10x_usart.o(i.USART_StructInit), (24 bytes).
    Removing stm32f10x_usart.o(i.USART_WakeUpConfig), (18 bytes).
    Removing stm32f10x_wwdg.o(i.WWDG_ClearFlag), (12 bytes).
    Removing stm32f10x_wwdg.o(i.WWDG_DeInit), (22 bytes).
    Removing stm32f10x_wwdg.o(i.WWDG_Enable), (16 bytes).
    Removing stm32f10x_wwdg.o(i.WWDG_EnableIT), (12 bytes).
    Removing stm32f10x_wwdg.o(i.WWDG_GetFlagStatus), (12 bytes).
    Removing stm32f10x_wwdg.o(i.WWDG_SetCounter), (16 bytes).
    Removing stm32f10x_wwdg.o(i.WWDG_SetPrescaler), (24 bytes).
    Removing stm32f10x_wwdg.o(i.WWDG_SetWindowValue), (40 bytes).

443 unused section(s) (total 17602 bytes) removed from the image.

==============================================================================

Image Symbol Table

    Local Symbols

    Symbol Name                              Value     Ov Type        Size  Object(Section)

    ../clib/angel/boardlib.s                 0x00000000   Number         0  boardshut.o ABSOLUTE
    ../clib/angel/boardlib.s                 0x00000000   Number         0  boardinit3.o ABSOLUTE
    ../clib/angel/boardlib.s                 0x00000000   Number         0  boardinit2.o ABSOLUTE
    ../clib/angel/boardlib.s                 0x00000000   Number         0  boardinit1.o ABSOLUTE
    ../clib/angel/handlers.s                 0x00000000   Number         0  __scatter_zi.o ABSOLUTE
    ../clib/angel/handlers.s                 0x00000000   Number         0  __scatter_copy.o ABSOLUTE
    ../clib/angel/kernel.s                   0x00000000   Number         0  rtexit.o ABSOLUTE
    ../clib/angel/kernel.s                   0x00000000   Number         0  __rtentry4.o ABSOLUTE
    ../clib/angel/kernel.s                   0x00000000   Number         0  __rtentry2.o ABSOLUTE
    ../clib/angel/kernel.s                   0x00000000   Number         0  __rtentry.o ABSOLUTE
    ../clib/angel/kernel.s                   0x00000000   Number         0  rtexit2.o ABSOLUTE
    ../clib/angel/rt.s                       0x00000000   Number         0  rt_raise.o ABSOLUTE
    ../clib/angel/scatter.s                  0x00000000   Number         0  __scatter.o ABSOLUTE
    ../clib/angel/startup.s                  0x00000000   Number         0  __main.o ABSOLUTE
    ../clib/angel/sys.s                      0x00000000   Number         0  libspace.o ABSOLUTE
    ../clib/angel/sys.s                      0x00000000   Number         0  indicate_semi.o ABSOLUTE
    ../clib/angel/sys.s                      0x00000000   Number         0  use_no_semi_2.o ABSOLUTE
    ../clib/angel/sys.s                      0x00000000   Number         0  sys_stackheap_outer.o ABSOLUTE
    ../clib/angel/sys.s                      0x00000000   Number         0  use_no_semi.o ABSOLUTE
    ../clib/angel/sysapp.c                   0x00000000   Number         0  sys_command.o ABSOLUTE
    ../clib/angel/sysapp.c                   0x00000000   Number         0  sys_wrch.o ABSOLUTE
    ../clib/armsys.c                         0x00000000   Number         0  argv_veneer.o ABSOLUTE
    ../clib/armsys.c                         0x00000000   Number         0  _get_argv_nomalloc.o ABSOLUTE
    ../clib/armsys.c                         0x00000000   Number         0  no_argv.o ABSOLUTE
    ../clib/armsys.c                         0x00000000   Number         0  argv_veneer.o ABSOLUTE
    ../clib/heapalloc.c                      0x00000000   Number         0  hrguard.o ABSOLUTE
    ../clib/heapaux.c                        0x00000000   Number         0  heapauxi.o ABSOLUTE
    ../clib/libinit.s                        0x00000000   Number         0  libshutdown2.o ABSOLUTE
    ../clib/libinit.s                        0x00000000   Number         0  libinit.o ABSOLUTE
    ../clib/libinit.s                        0x00000000   Number         0  libinit2.o ABSOLUTE
    ../clib/libinit.s                        0x00000000   Number         0  libshutdown.o ABSOLUTE
    ../clib/memcpset.s                       0x00000000   Number         0  rt_memcpy_w.o ABSOLUTE
    ../clib/memcpset.s                       0x00000000   Number         0  rt_memclr_w.o ABSOLUTE
    ../clib/memcpset.s                       0x00000000   Number         0  rt_memclr.o ABSOLUTE
    ../clib/memcpset.s                       0x00000000   Number         0  rt_memmove_w.o ABSOLUTE
    ../clib/memcpset.s                       0x00000000   Number         0  rt_memcpy_v6.o ABSOLUTE
    ../clib/memcpset.s                       0x00000000   Number         0  rt_memmove_v6.o ABSOLUTE
    ../clib/misc.s                           0x00000000   Number         0  printf_stubs.o ABSOLUTE
    ../clib/printf.c                         0x00000000   Number         0  noretval__2sprintf.o ABSOLUTE
    ../clib/printf.c                         0x00000000   Number         0  _printf_pad.o ABSOLUTE
    ../clib/printf.c                         0x00000000   Number         0  _printf_str.o ABSOLUTE
    ../clib/printf.c                         0x00000000   Number         0  _printf_dec.o ABSOLUTE
    ../clib/printf.c                         0x00000000   Number         0  _printf_hex_ll.o ABSOLUTE
    ../clib/printf.c                         0x00000000   Number         0  _printf_char_file.o ABSOLUTE
    ../clib/printf.c                         0x00000000   Number         0  __printf_flags_wp.o ABSOLUTE
    ../clib/printf.c                         0x00000000   Number         0  __printf_ss_wp.o ABSOLUTE
    ../clib/printf.c                         0x00000000   Number         0  _printf_char.o ABSOLUTE
    ../clib/printf.c                         0x00000000   Number         0  _printf_hex_int_ll.o ABSOLUTE
    ../clib/printf.c                         0x00000000   Number         0  _printf_hex_ptr.o ABSOLUTE
    ../clib/printf.c                         0x00000000   Number         0  _printf_hex_int_ptr.o ABSOLUTE
    ../clib/printf.c                         0x00000000   Number         0  _printf_hex_ll_ptr.o ABSOLUTE
    ../clib/printf.c                         0x00000000   Number         0  _printf_hex_int_ll_ptr.o ABSOLUTE
    ../clib/printf.c                         0x00000000   Number         0  __printf_wp.o ABSOLUTE
    ../clib/printf.c                         0x00000000   Number         0  __printf.o ABSOLUTE
    ../clib/printf.c                         0x00000000   Number         0  __printf_flags_ss_wp.o ABSOLUTE
    ../clib/printf.c                         0x00000000   Number         0  __printf_nopercent.o ABSOLUTE
    ../clib/printf.c                         0x00000000   Number         0  __printf_flags_ss.o ABSOLUTE
    ../clib/printf.c                         0x00000000   Number         0  __2printf.o ABSOLUTE
    ../clib/printf.c                         0x00000000   Number         0  __2sprintf.o ABSOLUTE
    ../clib/printf.c                         0x00000000   Number         0  _sputc.o ABSOLUTE
    ../clib/printf.c                         0x00000000   Number         0  _printf_char_common.o ABSOLUTE
    ../clib/printf.c                         0x00000000   Number         0  noretval__2printf.o ABSOLUTE
    ../clib/printf.c                         0x00000000   Number         0  _printf_intcommon.o ABSOLUTE
    ../clib/printf.c                         0x00000000   Number         0  _printf_hex_int.o ABSOLUTE
    ../clib/printf.c                         0x00000000   Number         0  __printf_ss.o ABSOLUTE
    ../clib/printf.c                         0x00000000   Number         0  __printf_flags.o ABSOLUTE
    ../clib/printf_percent.s                 0x00000000   Number         0  _printf_d.o ABSOLUTE
    ../clib/printf_percent.s                 0x00000000   Number         0  _printf_percent_end.o ABSOLUTE
    ../clib/printf_percent.s                 0x00000000   Number         0  _printf_u.o ABSOLUTE
    ../clib/printf_percent.s                 0x00000000   Number         0  _printf_x.o ABSOLUTE
    ../clib/printf_percent.s                 0x00000000   Number         0  _printf_s.o ABSOLUTE
    ../clib/printf_percent.s                 0x00000000   Number         0  _printf_percent.o ABSOLUTE
    ../clib/signal.c                         0x00000000   Number         0  defsig_rtmem_formal.o ABSOLUTE
    ../clib/signal.c                         0x00000000   Number         0  defsig_rtmem_outer.o ABSOLUTE
    ../clib/signal.c                         0x00000000   Number         0  defsig_other.o ABSOLUTE
    ../clib/signal.c                         0x00000000   Number         0  defsig_segv_inner.o ABSOLUTE
    ../clib/signal.c                         0x00000000   Number         0  defsig_cppl_inner.o ABSOLUTE
    ../clib/signal.c                         0x00000000   Number         0  defsig_pvfn_inner.o ABSOLUTE
    ../clib/signal.c                         0x00000000   Number         0  defsig_rtred_inner.o ABSOLUTE
    ../clib/signal.c                         0x00000000   Number         0  defsig_fpe_inner.o ABSOLUTE
    ../clib/signal.c                         0x00000000   Number         0  defsig_abrt_inner.o ABSOLUTE
    ../clib/signal.c                         0x00000000   Number         0  defsig_general.o ABSOLUTE
    ../clib/signal.c                         0x00000000   Number         0  __raise.o ABSOLUTE
    ../clib/signal.c                         0x00000000   Number         0  defsig_rtmem_inner.o ABSOLUTE
    ../clib/signal.c                         0x00000000   Number         0  defsig_exit.o ABSOLUTE
    ../clib/signal.c                         0x00000000   Number         0  defsig_stak_inner.o ABSOLUTE
    ../clib/signal.s                         0x00000000   Number         0  defsig.o ABSOLUTE
    ../clib/stdio.c                          0x00000000   Number         0  ferror.o ABSOLUTE
    ../clib/stdio.c                          0x00000000   Number         0  ferror_locked.o ABSOLUTE
    ../clib/stdlib.c                         0x00000000   Number         0  exit.o ABSOLUTE
    ../clib/string.c                         0x00000000   Number         0  memcmp.o ABSOLUTE
    ../fplib/dcmpi.s                         0x00000000   Number         0  dcmpi.o ABSOLUTE
    ../fplib/dleqf.s                         0x00000000   Number         0  dleqf.o ABSOLUTE
    ../fplib/dnaninf.s                       0x00000000   Number         0  dnaninf.o ABSOLUTE
    ../fplib/dretinf.s                       0x00000000   Number         0  dretinf.o ABSOLUTE
    ../fplib/drleqf.s                        0x00000000   Number         0  drleqf.o ABSOLUTE
    ../fplib/f2d.s                           0x00000000   Number         0  f2d.o ABSOLUTE
    ../fplib/faddsub.s                       0x00000000   Number         0  faddsub_clz.o ABSOLUTE
    ../fplib/fcmpi.s                         0x00000000   Number         0  fcmpi.o ABSOLUTE
    ../fplib/fdiv.s                          0x00000000   Number         0  fdiv.o ABSOLUTE
    ../fplib/feqf.s                          0x00000000   Number         0  feqf.o ABSOLUTE
    ../fplib/ffix.s                          0x00000000   Number         0  ffix.o ABSOLUTE
    ../fplib/fflt.s                          0x00000000   Number         0  fflt_clz.o ABSOLUTE
    ../fplib/fmul.s                          0x00000000   Number         0  fmul.o ABSOLUTE
    ../fplib/fnaninf.s                       0x00000000   Number         0  fnaninf.o ABSOLUTE
    ../fplib/fpinit.s                        0x00000000   Number         0  fpinit.o ABSOLUTE
    ../fplib/fretinf.s                       0x00000000   Number         0  fretinf.o ABSOLUTE
    ../fplib/usenofp.s                       0x00000000   Number         0  usenofp.o ABSOLUTE
    ..\AUDIO\audio_player.c                  0x00000000   Number         0  audio_player.o ABSOLUTE
    ..\AUDIO\audio_record.c                  0x00000000   Number         0  audio_record.o ABSOLUTE
    ..\AUDIO\board_audio.c                   0x00000000   Number         0  board_audio.o ABSOLUTE
    ..\AUDIO\minimp3_adapter.c               0x00000000   Number         0  minimp3_adapter.o ABSOLUTE
    ..\AUDIO\pff\diskio.c                    0x00000000   Number         0  diskio.o ABSOLUTE
    ..\AUDIO\pff\pff.c                       0x00000000   Number         0  pff.o ABSOLUTE
    ..\AUDIO\sdcard_stub.c                   0x00000000   Number         0  sdcard_stub.o ABSOLUTE
    ..\CORE\arm\startup_stm32f10x_hd.s       0x00000000   Number         0  startup_stm32f10x_hd.o ABSOLUTE
    ..\CORE\core_cm3.c                       0x00000000   Number         0  core_cm3.o ABSOLUTE
    ..\FWLib\src\misc.c                      0x00000000   Number         0  misc.o ABSOLUTE
    ..\FWLib\src\stm32f10x_adc.c             0x00000000   Number         0  stm32f10x_adc.o ABSOLUTE
    ..\FWLib\src\stm32f10x_bkp.c             0x00000000   Number         0  stm32f10x_bkp.o ABSOLUTE
    ..\FWLib\src\stm32f10x_can.c             0x00000000   Number         0  stm32f10x_can.o ABSOLUTE
    ..\FWLib\src\stm32f10x_cec.c             0x00000000   Number         0  stm32f10x_cec.o ABSOLUTE
    ..\FWLib\src\stm32f10x_crc.c             0x00000000   Number         0  stm32f10x_crc.o ABSOLUTE
    ..\FWLib\src\stm32f10x_dac.c             0x00000000   Number         0  stm32f10x_dac.o ABSOLUTE
    ..\FWLib\src\stm32f10x_dbgmcu.c          0x00000000   Number         0  stm32f10x_dbgmcu.o ABSOLUTE
    ..\FWLib\src\stm32f10x_dma.c             0x00000000   Number         0  stm32f10x_dma.o ABSOLUTE
    ..\FWLib\src\stm32f10x_exti.c            0x00000000   Number         0  stm32f10x_exti.o ABSOLUTE
    ..\FWLib\src\stm32f10x_flash.c           0x00000000   Number         0  stm32f10x_flash.o ABSOLUTE
    ..\FWLib\src\stm32f10x_fsmc.c            0x00000000   Number         0  stm32f10x_fsmc.o ABSOLUTE
    ..\FWLib\src\stm32f10x_gpio.c            0x00000000   Number         0  stm32f10x_gpio.o ABSOLUTE
    ..\FWLib\src\stm32f10x_i2c.c             0x00000000   Number         0  stm32f10x_i2c.o ABSOLUTE
    ..\FWLib\src\stm32f10x_iwdg.c            0x00000000   Number         0  stm32f10x_iwdg.o ABSOLUTE
    ..\FWLib\src\stm32f10x_pwr.c             0x00000000   Number         0  stm32f10x_pwr.o ABSOLUTE
    ..\FWLib\src\stm32f10x_rcc.c             0x00000000   Number         0  stm32f10x_rcc.o ABSOLUTE
    ..\FWLib\src\stm32f10x_rtc.c             0x00000000   Number         0  stm32f10x_rtc.o ABSOLUTE
    ..\FWLib\src\stm32f10x_sdio.c            0x00000000   Number         0  stm32f10x_sdio.o ABSOLUTE
    ..\FWLib\src\stm32f10x_spi.c             0x00000000   Number         0  stm32f10x_spi.o ABSOLUTE
    ..\FWLib\src\stm32f10x_tim.c             0x00000000   Number         0  stm32f10x_tim.o ABSOLUTE
    ..\FWLib\src\stm32f10x_usart.c           0x00000000   Number         0  stm32f10x_usart.o ABSOLUTE
    ..\FWLib\src\stm32f10x_wwdg.c            0x00000000   Number         0  stm32f10x_wwdg.o ABSOLUTE
    ..\HARDWARE\EXTI\exti.c                  0x00000000   Number         0  exti.o ABSOLUTE
    ..\HARDWARE\GPIO\gpio.c                  0x00000000   Number         0  gpio.o ABSOLUTE
    ..\HARDWARE\USART\usart.c                0x00000000   Number         0  usart.o ABSOLUTE
    ..\SYSTEM\delay\delay.c                  0x00000000   Number         0  delay.o ABSOLUTE
    ..\USER\main.c                           0x00000000   Number         0  main.o ABSOLUTE
    ..\USER\stm32f10x_it.c                   0x00000000   Number         0  stm32f10x_it.o ABSOLUTE
    ..\USER\system_stm32f10x.c               0x00000000   Number         0  system_stm32f10x.o ABSOLUTE
    ..\\CORE\\core_cm3.c                     0x00000000   Number         0  core_cm3.o ABSOLUTE
    dc.s                                     0x00000000   Number         0  dc.o ABSOLUTE
    RESET                                    0x08000000   Section      304  startup_stm32f10x_hd.o(RESET)
    !!!main                                  0x08000130   Section        8  __main.o(!!!main)
    !!!scatter                               0x08000138   Section       52  __scatter.o(!!!scatter)
    !!handler_copy                           0x0800016c   Section       26  __scatter_copy.o(!!handler_copy)
    !!handler_zi                             0x08000188   Section       28  __scatter_zi.o(!!handler_zi)
    .ARM.Collect$$_printf_percent$$00000000  0x080001a4   Section        0  _printf_percent.o(.ARM.Collect$$_printf_percent$$00000000)
    .ARM.Collect$$_printf_percent$$00000009  0x080001a4   Section        6  _printf_d.o(.ARM.Collect$$_printf_percent$$00000009)
    .ARM.Collect$$_printf_percent$$0000000A  0x080001aa   Section        6  _printf_u.o(.ARM.Collect$$_printf_percent$$0000000A)
    .ARM.Collect$$_printf_percent$$0000000C  0x080001b0   Section        6  _printf_x.o(.ARM.Collect$$_printf_percent$$0000000C)
    .ARM.Collect$$_printf_percent$$00000014  0x080001b6   Section        6  _printf_s.o(.ARM.Collect$$_printf_percent$$00000014)
    .ARM.Collect$$_printf_percent$$00000017  0x080001bc   Section        4  _printf_percent_end.o(.ARM.Collect$$_printf_percent$$00000017)
    .ARM.Collect$$libinit$$00000000          0x080001c0   Section        2  libinit.o(.ARM.Collect$$libinit$$00000000)
    .ARM.Collect$$libinit$$00000002          0x080001c2   Section        0  libinit2.o(.ARM.Collect$$libinit$$00000002)
    .ARM.Collect$$libinit$$00000004          0x080001c2   Section        0  libinit2.o(.ARM.Collect$$libinit$$00000004)
    .ARM.Collect$$libinit$$0000000A          0x080001c2   Section        0  libinit2.o(.ARM.Collect$$libinit$$0000000A)
    .ARM.Collect$$libinit$$0000000C          0x080001c2   Section        0  libinit2.o(.ARM.Collect$$libinit$$0000000C)
    .ARM.Collect$$libinit$$0000000E          0x080001c2   Section        0  libinit2.o(.ARM.Collect$$libinit$$0000000E)
    .ARM.Collect$$libinit$$00000011          0x080001c2   Section        0  libinit2.o(.ARM.Collect$$libinit$$00000011)
    .ARM.Collect$$libinit$$00000013          0x080001c2   Section        0  libinit2.o(.ARM.Collect$$libinit$$00000013)
    .ARM.Collect$$libinit$$00000015          0x080001c2   Section        0  libinit2.o(.ARM.Collect$$libinit$$00000015)
    .ARM.Collect$$libinit$$00000017          0x080001c2   Section        0  libinit2.o(.ARM.Collect$$libinit$$00000017)
    .ARM.Collect$$libinit$$00000019          0x080001c2   Section        0  libinit2.o(.ARM.Collect$$libinit$$00000019)
    .ARM.Collect$$libinit$$0000001B          0x080001c2   Section        0  libinit2.o(.ARM.Collect$$libinit$$0000001B)
    .ARM.Collect$$libinit$$0000001D          0x080001c2   Section        0  libinit2.o(.ARM.Collect$$libinit$$0000001D)
    .ARM.Collect$$libinit$$0000001F          0x080001c2   Section        0  libinit2.o(.ARM.Collect$$libinit$$0000001F)
    .ARM.Collect$$libinit$$00000021          0x080001c2   Section        0  libinit2.o(.ARM.Collect$$libinit$$00000021)
    .ARM.Collect$$libinit$$00000023          0x080001c2   Section        0  libinit2.o(.ARM.Collect$$libinit$$00000023)
    .ARM.Collect$$libinit$$00000025          0x080001c2   Section        0  libinit2.o(.ARM.Collect$$libinit$$00000025)
    .ARM.Collect$$libinit$$0000002C          0x080001c2   Section        0  libinit2.o(.ARM.Collect$$libinit$$0000002C)
    .ARM.Collect$$libinit$$0000002E          0x080001c2   Section        0  libinit2.o(.ARM.Collect$$libinit$$0000002E)
    .ARM.Collect$$libinit$$00000030          0x080001c2   Section        0  libinit2.o(.ARM.Collect$$libinit$$00000030)
    .ARM.Collect$$libinit$$00000032          0x080001c2   Section        0  libinit2.o(.ARM.Collect$$libinit$$00000032)
    .ARM.Collect$$libinit$$00000033          0x080001c2   Section        2  libinit2.o(.ARM.Collect$$libinit$$00000033)
    .ARM.Collect$$libshutdown$$00000000      0x080001c4   Section        2  libshutdown.o(.ARM.Collect$$libshutdown$$00000000)
    .ARM.Collect$$libshutdown$$00000002      0x080001c6   Section        0  libshutdown2.o(.ARM.Collect$$libshutdown$$00000002)
    .ARM.Collect$$libshutdown$$00000004      0x080001c6   Section        0  libshutdown2.o(.ARM.Collect$$libshutdown$$00000004)
    .ARM.Collect$$libshutdown$$00000006      0x080001c6   Section        0  libshutdown2.o(.ARM.Collect$$libshutdown$$00000006)
    .ARM.Collect$$libshutdown$$00000009      0x080001c6   Section        0  libshutdown2.o(.ARM.Collect$$libshutdown$$00000009)
    .ARM.Collect$$libshutdown$$0000000C      0x080001c6   Section        0  libshutdown2.o(.ARM.Collect$$libshutdown$$0000000C)
    .ARM.Collect$$libshutdown$$0000000E      0x080001c6   Section        0  libshutdown2.o(.ARM.Collect$$libshutdown$$0000000E)
    .ARM.Collect$$libshutdown$$00000011      0x080001c6   Section        0  libshutdown2.o(.ARM.Collect$$libshutdown$$00000011)
    .ARM.Collect$$libshutdown$$00000012      0x080001c6   Section        2  libshutdown2.o(.ARM.Collect$$libshutdown$$00000012)
    .ARM.Collect$$rtentry$$00000000          0x080001c8   Section        0  __rtentry.o(.ARM.Collect$$rtentry$$00000000)
    .ARM.Collect$$rtentry$$00000002          0x080001c8   Section        0  __rtentry2.o(.ARM.Collect$$rtentry$$00000002)
    .ARM.Collect$$rtentry$$00000004          0x080001c8   Section        6  __rtentry4.o(.ARM.Collect$$rtentry$$00000004)
    .ARM.Collect$$rtentry$$00000009          0x080001ce   Section        0  __rtentry2.o(.ARM.Collect$$rtentry$$00000009)
    .ARM.Collect$$rtentry$$0000000A          0x080001ce   Section        4  __rtentry2.o(.ARM.Collect$$rtentry$$0000000A)
    .ARM.Collect$$rtentry$$0000000C          0x080001d2   Section        0  __rtentry2.o(.ARM.Collect$$rtentry$$0000000C)
    .ARM.Collect$$rtentry$$0000000D          0x080001d2   Section        8  __rtentry2.o(.ARM.Collect$$rtentry$$0000000D)
    .ARM.Collect$$rtexit$$00000000           0x080001da   Section        2  rtexit.o(.ARM.Collect$$rtexit$$00000000)
    .ARM.Collect$$rtexit$$00000002           0x080001dc   Section        0  rtexit2.o(.ARM.Collect$$rtexit$$00000002)
    .ARM.Collect$$rtexit$$00000003           0x080001dc   Section        4  rtexit2.o(.ARM.Collect$$rtexit$$00000003)
    .ARM.Collect$$rtexit$$00000004           0x080001e0   Section        6  rtexit2.o(.ARM.Collect$$rtexit$$00000004)
    .text                                    0x080001e8   Section       64  startup_stm32f10x_hd.o(.text)
    .text                                    0x08000228   Section        2  use_no_semi_2.o(.text)
    .text                                    0x0800022c   Section        0  noretval__2printf.o(.text)
    .text                                    0x08000244   Section        0  noretval__2sprintf.o(.text)
    .text                                    0x0800026c   Section        0  _printf_pad.o(.text)
    .text                                    0x080002ba   Section        0  _printf_str.o(.text)
    .text                                    0x0800030c   Section        0  _printf_dec.o(.text)
    .text                                    0x08000384   Section        0  _printf_hex_int.o(.text)
    .text                                    0x080003dc   Section        0  __printf_flags_ss_wp.o(.text)
    .text                                    0x08000564   Section        0  memcmp.o(.text)
    .text                                    0x080005bc   Section      138  rt_memcpy_v6.o(.text)
    .text                                    0x08000646   Section      132  rt_memmove_v6.o(.text)
    .text                                    0x080006ca   Section      100  rt_memcpy_w.o(.text)
    .text                                    0x0800072e   Section       68  rt_memclr.o(.text)
    .text                                    0x08000772   Section       78  rt_memclr_w.o(.text)
    .text                                    0x080007c0   Section        0  heapauxi.o(.text)
    .text                                    0x080007c6   Section        2  use_no_semi.o(.text)
    .text                                    0x080007c8   Section        0  _printf_intcommon.o(.text)
    .text                                    0x0800087c   Section        0  _printf_char_common.o(.text)
    _printf_input_char                       0x0800087d   Thumb Code    10  _printf_char_common.o(.text)
    .text                                    0x080008ac   Section        0  _sputc.o(.text)
    .text                                    0x080008b6   Section        0  _printf_char.o(.text)
    .text                                    0x080008e4   Section        0  _printf_char_file.o(.text)
    .text                                    0x08000908   Section      122  rt_memmove_w.o(.text)
    .text                                    0x08000982   Section        0  ferror.o(.text)
    .text                                    0x0800098a   Section       74  sys_stackheap_outer.o(.text)
    .text                                    0x080009d4   Section        0  exit.o(.text)
    .text                                    0x080009e8   Section        8  libspace.o(.text)
    i.BusFault_Handler                       0x080009f0   Section        0  stm32f10x_it.o(i.BusFault_Handler)
    i.DebugMon_Handler                       0x080009f4   Section        0  stm32f10x_it.o(i.DebugMon_Handler)
    i.EXTI1_IRQHandler                       0x080009f8   Section        0  exti.o(i.EXTI1_IRQHandler)
    i.EXTI_ClearITPendingBit                 0x08000a4c   Section        0  stm32f10x_exti.o(i.EXTI_ClearITPendingBit)
    i.GPIO_Init                              0x08000a58   Section        0  stm32f10x_gpio.o(i.GPIO_Init)
    i.GPIO_PinRemapConfig                    0x08000b70   Section        0  stm32f10x_gpio.o(i.GPIO_PinRemapConfig)
    i.GPIO_ReadInputDataBit                  0x08000c00   Section        0  stm32f10x_gpio.o(i.GPIO_ReadInputDataBit)
    i.GPIO_ReadOutputDataBit                 0x08000c12   Section        0  stm32f10x_gpio.o(i.GPIO_ReadOutputDataBit)
    i.GPIO_ResetBits                         0x08000c24   Section        0  stm32f10x_gpio.o(i.GPIO_ResetBits)
    i.GPIO_SetBits                           0x08000c28   Section        0  stm32f10x_gpio.o(i.GPIO_SetBits)
    i.GPIO_WriteBit                          0x08000c2c   Section        0  stm32f10x_gpio.o(i.GPIO_WriteBit)
    i.HardFault_Handler                      0x08000c36   Section        0  stm32f10x_it.o(i.HardFault_Handler)
    i.I2S_Cmd                                0x08000c3a   Section        0  stm32f10x_spi.o(i.I2S_Cmd)
    i.I2S_Init                               0x08000c54   Section        0  stm32f10x_spi.o(i.I2S_Init)
    i.L12_apply_scf_384                      0x08000d3c   Section        0  minimp3_adapter.o(i.L12_apply_scf_384)
    L12_apply_scf_384                        0x08000d3d   Thumb Code   128  minimp3_adapter.o(i.L12_apply_scf_384)
    i.L12_dequantize_granule                 0x08000dbc   Section        0  minimp3_adapter.o(i.L12_dequantize_granule)
    L12_dequantize_granule                   0x08000dbd   Thumb Code   216  minimp3_adapter.o(i.L12_dequantize_granule)
    i.L12_read_scale_info                    0x08000e94   Section        0  minimp3_adapter.o(i.L12_read_scale_info)
    L12_read_scale_info                      0x08000e95   Thumb Code   242  minimp3_adapter.o(i.L12_read_scale_info)
    i.L12_read_scalefactors                  0x08000f8c   Section        0  minimp3_adapter.o(i.L12_read_scalefactors)
    L12_read_scalefactors                    0x08000f8d   Thumb Code   152  minimp3_adapter.o(i.L12_read_scalefactors)
    i.L12_subband_alloc_table                0x08001028   Section        0  minimp3_adapter.o(i.L12_subband_alloc_table)
    L12_subband_alloc_table                  0x08001029   Thumb Code   172  minimp3_adapter.o(i.L12_subband_alloc_table)
    i.L3_antialias                           0x080010e4   Section        0  minimp3_adapter.o(i.L3_antialias)
    L3_antialias                             0x080010e5   Thumb Code   136  minimp3_adapter.o(i.L3_antialias)
    i.L3_change_sign                         0x08001170   Section        0  minimp3_adapter.o(i.L3_change_sign)
    L3_change_sign                           0x08001171   Thumb Code    38  minimp3_adapter.o(i.L3_change_sign)
    i.L3_dct3_9                              0x08001198   Section        0  minimp3_adapter.o(i.L3_dct3_9)
    L3_dct3_9                                0x08001199   Thumb Code   454  minimp3_adapter.o(i.L3_dct3_9)
    i.L3_decode                              0x0800137c   Section        0  minimp3_adapter.o(i.L3_decode)
    L3_decode                                0x0800137d   Thumb Code   382  minimp3_adapter.o(i.L3_decode)
    i.L3_decode_scalefactors                 0x080014fc   Section        0  minimp3_adapter.o(i.L3_decode_scalefactors)
    L3_decode_scalefactors                   0x080014fd   Thumb Code   464  minimp3_adapter.o(i.L3_decode_scalefactors)
    i.L3_huffman                             0x080016dc   Section        0  minimp3_adapter.o(i.L3_huffman)
    L3_huffman                               0x080016dd   Thumb Code  1026  minimp3_adapter.o(i.L3_huffman)
    i.L3_idct3                               0x08001af8   Section        0  minimp3_adapter.o(i.L3_idct3)
    L3_idct3                                 0x08001af9   Thumb Code    76  minimp3_adapter.o(i.L3_idct3)
    i.L3_imdct12                             0x08001b48   Section        0  minimp3_adapter.o(i.L3_imdct12)
    L3_imdct12                               0x08001b49   Thumb Code   300  minimp3_adapter.o(i.L3_imdct12)
    i.L3_imdct36                             0x08001c78   Section        0  minimp3_adapter.o(i.L3_imdct36)
    L3_imdct36                               0x08001c79   Thumb Code   426  minimp3_adapter.o(i.L3_imdct36)
    i.L3_imdct_gr                            0x08001e28   Section        0  minimp3_adapter.o(i.L3_imdct_gr)
    L3_imdct_gr                              0x08001e29   Thumb Code    96  minimp3_adapter.o(i.L3_imdct_gr)
    i.L3_imdct_short                         0x08001e8c   Section        0  minimp3_adapter.o(i.L3_imdct_short)
    L3_imdct_short                           0x08001e8d   Thumb Code    86  minimp3_adapter.o(i.L3_imdct_short)
    i.L3_intensity_stereo                    0x08001ee2   Section        0  minimp3_adapter.o(i.L3_intensity_stereo)
    L3_intensity_stereo                      0x08001ee3   Thumb Code   182  minimp3_adapter.o(i.L3_intensity_stereo)
    i.L3_intensity_stereo_band               0x08001f98   Section        0  minimp3_adapter.o(i.L3_intensity_stereo_band)
    L3_intensity_stereo_band                 0x08001f99   Thumb Code    58  minimp3_adapter.o(i.L3_intensity_stereo_band)
    i.L3_ldexp_q2                            0x08001fd4   Section        0  minimp3_adapter.o(i.L3_ldexp_q2)
    L3_ldexp_q2                              0x08001fd5   Thumb Code    76  minimp3_adapter.o(i.L3_ldexp_q2)
    i.L3_midside_stereo                      0x08002024   Section        0  minimp3_adapter.o(i.L3_midside_stereo)
    L3_midside_stereo                        0x08002025   Thumb Code    58  minimp3_adapter.o(i.L3_midside_stereo)
    i.L3_pow_43                              0x08002060   Section        0  minimp3_adapter.o(i.L3_pow_43)
    L3_pow_43                                0x08002061   Thumb Code   150  minimp3_adapter.o(i.L3_pow_43)
    i.L3_read_scalefactors                   0x08002104   Section        0  minimp3_adapter.o(i.L3_read_scalefactors)
    L3_read_scalefactors                     0x08002105   Thumb Code   184  minimp3_adapter.o(i.L3_read_scalefactors)
    i.L3_read_side_info                      0x080021bc   Section        0  minimp3_adapter.o(i.L3_read_side_info)
    L3_read_side_info                        0x080021bd   Thumb Code   576  minimp3_adapter.o(i.L3_read_side_info)
    i.L3_reorder                             0x08002408   Section        0  minimp3_adapter.o(i.L3_reorder)
    L3_reorder                               0x08002409   Thumb Code    88  minimp3_adapter.o(i.L3_reorder)
    i.L3_restore_reservoir                   0x08002460   Section        0  minimp3_adapter.o(i.L3_restore_reservoir)
    L3_restore_reservoir                     0x08002461   Thumb Code   178  minimp3_adapter.o(i.L3_restore_reservoir)
    i.L3_save_reservoir                      0x08002512   Section        0  minimp3_adapter.o(i.L3_save_reservoir)
    L3_save_reservoir                        0x08002513   Thumb Code    68  minimp3_adapter.o(i.L3_save_reservoir)
    i.L3_stereo_process                      0x08002558   Section        0  minimp3_adapter.o(i.L3_stereo_process)
    L3_stereo_process                        0x08002559   Thumb Code   208  minimp3_adapter.o(i.L3_stereo_process)
    i.L3_stereo_top_band                     0x08002630   Section        0  minimp3_adapter.o(i.L3_stereo_top_band)
    L3_stereo_top_band                       0x08002631   Thumb Code   102  minimp3_adapter.o(i.L3_stereo_top_band)
    i.MX_USART1_Init                         0x08002698   Section        0  usart.o(i.MX_USART1_Init)
    i.MemManage_Handler                      0x08002754   Section        0  stm32f10x_it.o(i.MemManage_Handler)
    i.NMI_Handler                            0x08002758   Section        0  stm32f10x_it.o(i.NMI_Handler)
    i.NVIC_Init                              0x0800275c   Section        0  misc.o(i.NVIC_Init)
    i.NVIC_PriorityGroupConfig               0x080027cc   Section        0  misc.o(i.NVIC_PriorityGroupConfig)
    i.PendSV_Handler                         0x080027e0   Section        0  stm32f10x_it.o(i.PendSV_Handler)
    i.RCC_AHBPeriphClockCmd                  0x080027e4   Section        0  stm32f10x_rcc.o(i.RCC_AHBPeriphClockCmd)
    i.RCC_APB1PeriphClockCmd                 0x08002804   Section        0  stm32f10x_rcc.o(i.RCC_APB1PeriphClockCmd)
    i.RCC_APB1PeriphResetCmd                 0x08002824   Section        0  stm32f10x_rcc.o(i.RCC_APB1PeriphResetCmd)
    i.RCC_APB2PeriphClockCmd                 0x08002844   Section        0  stm32f10x_rcc.o(i.RCC_APB2PeriphClockCmd)
    i.RCC_APB2PeriphResetCmd                 0x08002864   Section        0  stm32f10x_rcc.o(i.RCC_APB2PeriphResetCmd)
    i.RCC_GetClocksFreq                      0x08002884   Section        0  stm32f10x_rcc.o(i.RCC_GetClocksFreq)
    i.SDIO_ClearFlag                         0x08002958   Section        0  stm32f10x_sdio.o(i.SDIO_ClearFlag)
    i.SDIO_ClockCmd                          0x08002964   Section        0  stm32f10x_sdio.o(i.SDIO_ClockCmd)
    i.SDIO_DataConfig                        0x08002970   Section        0  stm32f10x_sdio.o(i.SDIO_DataConfig)
    i.SDIO_DeInit                            0x080029a0   Section        0  stm32f10x_sdio.o(i.SDIO_DeInit)
    i.SDIO_GetCommandResponse                0x080029c4   Section        0  stm32f10x_sdio.o(i.SDIO_GetCommandResponse)
    i.SDIO_GetFlagStatus                     0x080029d0   Section        0  stm32f10x_sdio.o(i.SDIO_GetFlagStatus)
    i.SDIO_GetResponse                       0x080029e8   Section        0  stm32f10x_sdio.o(i.SDIO_GetResponse)
    i.SDIO_Init                              0x08002a00   Section        0  stm32f10x_sdio.o(i.SDIO_Init)
    i.SDIO_ReadData                          0x08002a30   Section        0  stm32f10x_sdio.o(i.SDIO_ReadData)
    i.SDIO_SendCommand                       0x08002a3c   Section        0  stm32f10x_sdio.o(i.SDIO_SendCommand)
    i.SDIO_SetPowerState                     0x08002a68   Section        0  stm32f10x_sdio.o(i.SDIO_SetPowerState)
    i.SPI_I2S_DeInit                         0x08002a84   Section        0  stm32f10x_spi.o(i.SPI_I2S_DeInit)
    i.SPI_I2S_GetFlagStatus                  0x08002adc   Section        0  stm32f10x_spi.o(i.SPI_I2S_GetFlagStatus)
    i.SPI_I2S_ReceiveData                    0x08002aee   Section        0  stm32f10x_spi.o(i.SPI_I2S_ReceiveData)
    i.SPI_I2S_SendData                       0x08002af4   Section        0  stm32f10x_spi.o(i.SPI_I2S_SendData)
    i.SVC_Handler                            0x08002af8   Section        0  stm32f10x_it.o(i.SVC_Handler)
    i.SetSysClock                            0x08002afa   Section        0  system_stm32f10x.o(i.SetSysClock)
    SetSysClock                              0x08002afb   Thumb Code     8  system_stm32f10x.o(i.SetSysClock)
    i.SetSysClockTo72                        0x08002b04   Section        0  system_stm32f10x.o(i.SetSysClockTo72)
    SetSysClockTo72                          0x08002b05   Thumb Code   214  system_stm32f10x.o(i.SetSysClockTo72)
    i.SysTick_CLKSourceConfig                0x08002be4   Section        0  misc.o(i.SysTick_CLKSourceConfig)
    i.SysTick_Handler                        0x08002c0c   Section        0  stm32f10x_it.o(i.SysTick_Handler)
    i.SystemInit                             0x08002c10   Section        0  system_stm32f10x.o(i.SystemInit)
    i.USART1_IRQHandler                      0x08002c70   Section        0  usart.o(i.USART1_IRQHandler)
    i.USART_Cmd                              0x08002cd8   Section        0  stm32f10x_usart.o(i.USART_Cmd)
    i.USART_GetITStatus                      0x08002cf0   Section        0  stm32f10x_usart.o(i.USART_GetITStatus)
    i.USART_ITConfig                         0x08002d44   Section        0  stm32f10x_usart.o(i.USART_ITConfig)
    i.USART_Init                             0x08002d90   Section        0  stm32f10x_usart.o(i.USART_Init)
    i.USART_ReceiveData                      0x08002e68   Section        0  stm32f10x_usart.o(i.USART_ReceiveData)
    i.UsageFault_Handler                     0x08002e72   Section        0  stm32f10x_it.o(i.UsageFault_Handler)
    i._is_digit                              0x08002e76   Section        0  __printf_wp.o(i._is_digit)
    i._sys_exit                              0x08002e84   Section        0  usart.o(i._sys_exit)
    i.audio_delay_ms                         0x08002e88   Section        0  board_audio.o(i.audio_delay_ms)
    audio_delay_ms                           0x08002e89   Thumb Code    12  board_audio.o(i.audio_delay_ms)
    i.audio_delay_short                      0x08002e94   Section        0  board_audio.o(i.audio_delay_short)
    audio_delay_short                        0x08002e95   Thumb Code    24  board_audio.o(i.audio_delay_short)
    i.audio_player_debug_progress            0x08002eac   Section        0  audio_player.o(i.audio_player_debug_progress)
    audio_player_debug_progress              0x08002ead   Thumb Code    58  audio_player.o(i.audio_player_debug_progress)
    i.audio_player_debug_scan_filesystem     0x08002f28   Section        0  audio_player.o(i.audio_player_debug_scan_filesystem)
    audio_player_debug_scan_filesystem       0x08002f29   Thumb Code   190  audio_player.o(i.audio_player_debug_scan_filesystem)
    i.audio_player_debug_sector0             0x080030dc   Section        0  audio_player.o(i.audio_player_debug_sector0)
    audio_player_debug_sector0               0x080030dd   Thumb Code   138  audio_player.o(i.audio_player_debug_sector0)
    i.audio_player_debug_sector_summary      0x080031a0   Section        0  audio_player.o(i.audio_player_debug_sector_summary)
    audio_player_debug_sector_summary        0x080031a1   Thumb Code   194  audio_player.o(i.audio_player_debug_sector_summary)
    i.audio_player_find_first_mp3            0x08003290   Section        0  audio_player.o(i.audio_player_find_first_mp3)
    i.audio_player_get_stats                 0x080033cc   Section        0  audio_player.o(i.audio_player_get_stats)
    i.audio_player_has_suffix                0x080033d4   Section        0  audio_player.o(i.audio_player_has_suffix)
    audio_player_has_suffix                  0x080033d5   Thumb Code    94  audio_player.o(i.audio_player_has_suffix)
    i.audio_player_init                      0x08003434   Section        0  audio_player.o(i.audio_player_init)
    i.audio_player_last_error                0x080034d4   Section        0  audio_player.o(i.audio_player_last_error)
    i.audio_player_ld_dword                  0x080034dc   Section        0  audio_player.o(i.audio_player_ld_dword)
    audio_player_ld_dword                    0x080034dd   Thumb Code    24  audio_player.o(i.audio_player_ld_dword)
    i.audio_player_play_from_sd              0x080034f4   Section        0  audio_player.o(i.audio_player_play_from_sd)
    i.audio_player_play_mp3_from_sd          0x08003588   Section        0  audio_player.o(i.audio_player_play_mp3_from_sd)
    i.audio_player_reset_stats               0x080037dc   Section        0  audio_player.o(i.audio_player_reset_stats)
    audio_player_reset_stats                 0x080037dd   Thumb Code    12  audio_player.o(i.audio_player_reset_stats)
    i.audio_player_sector_has_aa55           0x080037ec   Section        0  audio_player.o(i.audio_player_sector_has_aa55)
    audio_player_sector_has_aa55             0x080037ed   Thumb Code    26  audio_player.o(i.audio_player_sector_has_aa55)
    i.audio_player_sector_has_exfat_name     0x08003808   Section        0  audio_player.o(i.audio_player_sector_has_exfat_name)
    audio_player_sector_has_exfat_name       0x08003809   Thumb Code    24  audio_player.o(i.audio_player_sector_has_exfat_name)
    i.audio_player_sector_has_fat_name       0x0800382c   Section        0  audio_player.o(i.audio_player_sector_has_fat_name)
    audio_player_sector_has_fat_name         0x0800382d   Thumb Code    40  audio_player.o(i.audio_player_sector_has_fat_name)
    i.audio_player_sector_interesting        0x08003860   Section        0  audio_player.o(i.audio_player_sector_interesting)
    audio_player_sector_interesting          0x08003861   Thumb Code    60  audio_player.o(i.audio_player_sector_interesting)
    i.audio_player_set_debug                 0x0800389c   Section        0  audio_player.o(i.audio_player_set_debug)
    i.audio_player_set_error                 0x080038b0   Section        0  audio_player.o(i.audio_player_set_error)
    audio_player_set_error                   0x080038b1   Thumb Code    30  audio_player.o(i.audio_player_set_error)
    i.audio_record_demo_once                 0x080038d4   Section        0  audio_record.o(i.audio_record_demo_once)
    i.audio_record_get_debug_info            0x08003958   Section        0  audio_record.o(i.audio_record_get_debug_info)
    i.board_audio_amp_set                    0x08003960   Section        0  board_audio.o(i.board_audio_amp_set)
    i.board_audio_apply_gain                 0x08003988   Section        0  board_audio.o(i.board_audio_apply_gain)
    board_audio_apply_gain                   0x08003989   Thumb Code    30  board_audio.o(i.board_audio_apply_gain)
    i.board_audio_capture_debug_regs         0x080039ac   Section        0  board_audio.o(i.board_audio_capture_debug_regs)
    board_audio_capture_debug_regs           0x080039ad   Thumb Code   160  board_audio.o(i.board_audio_capture_debug_regs)
    i.board_audio_capture_pcm                0x08003a58   Section        0  board_audio.o(i.board_audio_capture_pcm)
    i.board_audio_codec_init_playback        0x08003ad4   Section        0  board_audio.o(i.board_audio_codec_init_playback)
    board_audio_codec_init_playback          0x08003ad5   Thumb Code   304  board_audio.o(i.board_audio_codec_init_playback)
    i.board_audio_codec_init_record          0x08003c04   Section        0  board_audio.o(i.board_audio_codec_init_record)
    board_audio_codec_init_record            0x08003c05   Thumb Code   252  board_audio.o(i.board_audio_codec_init_record)
    i.board_audio_get_debug_info             0x08003d00   Section        0  board_audio.o(i.board_audio_get_debug_info)
    i.board_audio_gpio_init                  0x08003d08   Section        0  board_audio.o(i.board_audio_gpio_init)
    board_audio_gpio_init                    0x08003d09   Thumb Code   182  board_audio.o(i.board_audio_gpio_init)
    i.board_audio_i2s_freq                   0x08003dd0   Section        0  board_audio.o(i.board_audio_i2s_freq)
    board_audio_i2s_freq                     0x08003dd1   Thumb Code    30  board_audio.o(i.board_audio_i2s_freq)
    i.board_audio_i2s_init_rx                0x08003df0   Section        0  board_audio.o(i.board_audio_i2s_init_rx)
    board_audio_i2s_init_rx                  0x08003df1   Thumb Code    64  board_audio.o(i.board_audio_i2s_init_rx)
    i.board_audio_i2s_init_tx                0x08003e34   Section        0  board_audio.o(i.board_audio_i2s_init_tx)
    board_audio_i2s_init_tx                  0x08003e35   Thumb Code    12  board_audio.o(i.board_audio_i2s_init_tx)
    i.board_audio_i2s_init_tx_rate           0x08003e40   Section        0  board_audio.o(i.board_audio_i2s_init_tx_rate)
    board_audio_i2s_init_tx_rate             0x08003e41   Thumb Code    90  board_audio.o(i.board_audio_i2s_init_tx_rate)
    i.board_audio_init                       0x08003ea4   Section        0  board_audio.o(i.board_audio_init)
    i.board_audio_init_playback              0x08003eac   Section        0  board_audio.o(i.board_audio_init_playback)
    i.board_audio_init_record                0x08003ef4   Section        0  board_audio.o(i.board_audio_init_record)
    i.board_audio_play_pcm                   0x08003f3c   Section        0  board_audio.o(i.board_audio_play_pcm)
    i.board_audio_play_test_tone             0x08003ff8   Section        0  board_audio.o(i.board_audio_play_test_tone)
    i.board_audio_read_word                  0x08004058   Section        0  board_audio.o(i.board_audio_read_word)
    board_audio_read_word                    0x08004059   Thumb Code    26  board_audio.o(i.board_audio_read_word)
    i.board_audio_reset_debug                0x08004078   Section        0  board_audio.o(i.board_audio_reset_debug)
    board_audio_reset_debug                  0x08004079   Thumb Code    26  board_audio.o(i.board_audio_reset_debug)
    i.board_audio_set_error                  0x08004098   Section        0  board_audio.o(i.board_audio_set_error)
    board_audio_set_error                    0x08004099   Thumb Code     6  board_audio.o(i.board_audio_set_error)
    i.board_audio_set_sample_rate            0x080040a4   Section        0  board_audio.o(i.board_audio_set_sample_rate)
    i.board_audio_write_frame                0x080040c4   Section        0  board_audio.o(i.board_audio_write_frame)
    board_audio_write_frame                  0x080040c5   Thumb Code    30  board_audio.o(i.board_audio_write_frame)
    i.board_audio_write_word                 0x080040e8   Section        0  board_audio.o(i.board_audio_write_word)
    board_audio_write_word                   0x080040e9   Thumb Code    28  board_audio.o(i.board_audio_write_word)
    i.bs_init                                0x08004108   Section        0  minimp3_adapter.o(i.bs_init)
    bs_init                                  0x08004109   Thumb Code    12  minimp3_adapter.o(i.bs_init)
    i.check_fs                               0x08004114   Section        0  pff.o(i.check_fs)
    check_fs                                 0x08004115   Thumb Code   112  pff.o(i.check_fs)
    i.clust2sect                             0x08004184   Section        0  pff.o(i.clust2sect)
    clust2sect                               0x08004185   Thumb Code    30  pff.o(i.clust2sect)
    i.create_name                            0x080041a8   Section        0  pff.o(i.create_name)
    create_name                              0x080041a9   Thumb Code   154  pff.o(i.create_name)
    i.debug_print_text                       0x08004248   Section        0  main.o(i.debug_print_text)
    debug_print_text                         0x08004249   Thumb Code    14  main.o(i.debug_print_text)
    i.delay_Init                             0x0800425c   Section        0  delay.o(i.delay_Init)
    i.delay_ms                               0x08004268   Section        0  delay.o(i.delay_ms)
    i.dir_find                               0x080042b0   Section        0  pff.o(i.dir_find)
    dir_find                                 0x080042b1   Thumb Code   120  pff.o(i.dir_find)
    i.dir_next                               0x08004328   Section        0  pff.o(i.dir_next)
    dir_next                                 0x08004329   Thumb Code   120  pff.o(i.dir_next)
    i.dir_read                               0x080043a4   Section        0  pff.o(i.dir_read)
    dir_read                                 0x080043a5   Thumb Code   118  pff.o(i.dir_read)
    i.dir_rewind                             0x0800441c   Section        0  pff.o(i.dir_rewind)
    dir_rewind                               0x0800441d   Thumb Code    58  pff.o(i.dir_rewind)
    i.disk_initialize                        0x0800445c   Section        0  diskio.o(i.disk_initialize)
    i.disk_readp                             0x08004478   Section        0  diskio.o(i.disk_readp)
    i.dump_board_audio_debug                 0x080044c8   Section        0  main.o(i.dump_board_audio_debug)
    dump_board_audio_debug                   0x080044c9   Thumb Code    92  main.o(i.dump_board_audio_debug)
    i.dump_player_stats                      0x08004528   Section        0  main.o(i.dump_player_stats)
    dump_player_stats                        0x08004529   Thumb Code    36  main.o(i.dump_player_stats)
    i.dump_record_debug                      0x08004550   Section        0  main.o(i.dump_record_debug)
    dump_record_debug                        0x08004551   Thumb Code    24  main.o(i.dump_record_debug)
    i.es8311_probe                           0x080045a4   Section        0  board_audio.o(i.es8311_probe)
    es8311_probe                             0x080045a5   Thumb Code    70  board_audio.o(i.es8311_probe)
    i.es8311_probe_addr                      0x080045f4   Section        0  board_audio.o(i.es8311_probe_addr)
    es8311_probe_addr                        0x080045f5   Thumb Code    20  board_audio.o(i.es8311_probe_addr)
    i.es8311_read_reg                        0x08004608   Section        0  board_audio.o(i.es8311_read_reg)
    es8311_read_reg                          0x08004609   Thumb Code    70  board_audio.o(i.es8311_read_reg)
    i.es8311_write_reg                       0x08004658   Section        0  board_audio.o(i.es8311_write_reg)
    es8311_write_reg                         0x08004659   Thumb Code    30  board_audio.o(i.es8311_write_reg)
    i.es8311_write_reg_to                    0x08004680   Section        0  board_audio.o(i.es8311_write_reg_to)
    es8311_write_reg_to                      0x08004681   Thumb Code    48  board_audio.o(i.es8311_write_reg_to)
    i.follow_path                            0x080046b0   Section        0  pff.o(i.follow_path)
    follow_path                              0x080046b1   Thumb Code   128  pff.o(i.follow_path)
    i.fputc                                  0x08004730   Section        0  usart.o(i.fputc)
    i.get_bits                               0x0800474c   Section        0  minimp3_adapter.o(i.get_bits)
    get_bits                                 0x0800474d   Thumb Code    90  minimp3_adapter.o(i.get_bits)
    i.get_clust                              0x080047a8   Section        0  pff.o(i.get_clust)
    get_clust                                0x080047a9   Thumb Code    42  pff.o(i.get_clust)
    i.get_fat                                0x080047d8   Section        0  pff.o(i.get_fat)
    get_fat                                  0x080047d9   Thumb Code   104  pff.o(i.get_fat)
    i.get_fileinfo                           0x08004844   Section        0  pff.o(i.get_fileinfo)
    get_fileinfo                             0x08004845   Thumb Code   146  pff.o(i.get_fileinfo)
    i.hdr_bitrate_kbps                       0x080048d8   Section        0  minimp3_adapter.o(i.hdr_bitrate_kbps)
    hdr_bitrate_kbps                         0x080048d9   Thumb Code    46  minimp3_adapter.o(i.hdr_bitrate_kbps)
    i.hdr_compare                            0x0800490c   Section        0  minimp3_adapter.o(i.hdr_compare)
    hdr_compare                              0x0800490d   Thumb Code    78  minimp3_adapter.o(i.hdr_compare)
    i.hdr_frame_bytes                        0x0800495a   Section        0  minimp3_adapter.o(i.hdr_frame_bytes)
    hdr_frame_bytes                          0x0800495b   Thumb Code    68  minimp3_adapter.o(i.hdr_frame_bytes)
    i.hdr_frame_samples                      0x0800499e   Section        0  minimp3_adapter.o(i.hdr_frame_samples)
    hdr_frame_samples                        0x0800499f   Thumb Code    40  minimp3_adapter.o(i.hdr_frame_samples)
    i.hdr_padding                            0x080049c6   Section        0  minimp3_adapter.o(i.hdr_padding)
    hdr_padding                              0x080049c7   Thumb Code    32  minimp3_adapter.o(i.hdr_padding)
    i.hdr_sample_rate_hz                     0x080049e8   Section        0  minimp3_adapter.o(i.hdr_sample_rate_hz)
    hdr_sample_rate_hz                       0x080049e9   Thumb Code    34  minimp3_adapter.o(i.hdr_sample_rate_hz)
    i.hdr_valid                              0x08004a10   Section        0  minimp3_adapter.o(i.hdr_valid)
    hdr_valid                                0x08004a11   Thumb Code    64  minimp3_adapter.o(i.hdr_valid)
    i.i2c_read_byte                          0x08004a50   Section        0  board_audio.o(i.i2c_read_byte)
    i2c_read_byte                            0x08004a51   Thumb Code    70  board_audio.o(i.i2c_read_byte)
    i.i2c_scl_high                           0x08004a98   Section        0  board_audio.o(i.i2c_scl_high)
    i2c_scl_high                             0x08004a99   Thumb Code    16  board_audio.o(i.i2c_scl_high)
    i.i2c_scl_low                            0x08004aac   Section        0  board_audio.o(i.i2c_scl_low)
    i2c_scl_low                              0x08004aad   Thumb Code    16  board_audio.o(i.i2c_scl_low)
    i.i2c_sda_high                           0x08004ac0   Section        0  board_audio.o(i.i2c_sda_high)
    i2c_sda_high                             0x08004ac1   Thumb Code    16  board_audio.o(i.i2c_sda_high)
    i.i2c_sda_low                            0x08004ad4   Section        0  board_audio.o(i.i2c_sda_low)
    i2c_sda_low                              0x08004ad5   Thumb Code    16  board_audio.o(i.i2c_sda_low)
    i.i2c_sda_read                           0x08004ae8   Section        0  board_audio.o(i.i2c_sda_read)
    i2c_sda_read                             0x08004ae9   Thumb Code    12  board_audio.o(i.i2c_sda_read)
    i.i2c_start                              0x08004af8   Section        0  board_audio.o(i.i2c_start)
    i2c_start                                0x08004af9   Thumb Code    20  board_audio.o(i.i2c_start)
    i.i2c_stop                               0x08004b0c   Section        0  board_audio.o(i.i2c_stop)
    i2c_stop                                 0x08004b0d   Thumb Code    16  board_audio.o(i.i2c_stop)
    i.i2c_write_byte                         0x08004b1c   Section        0  board_audio.o(i.i2c_write_byte)
    i2c_write_byte                           0x08004b1d   Thumb Code    72  board_audio.o(i.i2c_write_byte)
    i.ld_dword                               0x08004b64   Section        0  pff.o(i.ld_dword)
    ld_dword                                 0x08004b65   Thumb Code    24  pff.o(i.ld_dword)
    i.ld_word                                0x08004b7c   Section        0  pff.o(i.ld_word)
    ld_word                                  0x08004b7d   Thumb Code    12  pff.o(i.ld_word)
    i.main                                   0x08004b88   Section        0  main.o(i.main)
    i.mem_cmp                                0x08004e6c   Section        0  pff.o(i.mem_cmp)
    mem_cmp                                  0x08004e6d   Thumb Code    38  pff.o(i.mem_cmp)
    i.mem_set                                0x08004e92   Section        0  pff.o(i.mem_set)
    mem_set                                  0x08004e93   Thumb Code    20  pff.o(i.mem_set)
    i.mp3d_DCT_II                            0x08004ea8   Section        0  minimp3_adapter.o(i.mp3d_DCT_II)
    mp3d_DCT_II                              0x08004ea9   Thumb Code   836  minimp3_adapter.o(i.mp3d_DCT_II)
    i.mp3d_find_frame                        0x08005214   Section        0  minimp3_adapter.o(i.mp3d_find_frame)
    mp3d_find_frame                          0x08005215   Thumb Code   222  minimp3_adapter.o(i.mp3d_find_frame)
    i.mp3d_match_frame                       0x080052f2   Section        0  minimp3_adapter.o(i.mp3d_match_frame)
    mp3d_match_frame                         0x080052f3   Thumb Code    80  minimp3_adapter.o(i.mp3d_match_frame)
    i.mp3d_scale_pcm                         0x08005344   Section        0  minimp3_adapter.o(i.mp3d_scale_pcm)
    mp3d_scale_pcm                           0x08005345   Thumb Code    82  minimp3_adapter.o(i.mp3d_scale_pcm)
    i.mp3d_synth                             0x080053a4   Section        0  minimp3_adapter.o(i.mp3d_synth)
    mp3d_synth                               0x080053a5   Thumb Code  2348  minimp3_adapter.o(i.mp3d_synth)
    i.mp3d_synth_granule                     0x08005cd0   Section        0  minimp3_adapter.o(i.mp3d_synth_granule)
    mp3d_synth_granule                       0x08005cd1   Thumb Code   132  minimp3_adapter.o(i.mp3d_synth_granule)
    i.mp3d_synth_pair                        0x08005d54   Section        0  minimp3_adapter.o(i.mp3d_synth_pair)
    mp3d_synth_pair                          0x08005d55   Thumb Code   406  minimp3_adapter.o(i.mp3d_synth_pair)
    i.mp3dec_decode_frame                    0x08005f2c   Section        0  minimp3_adapter.o(i.mp3dec_decode_frame)
    i.mp3dec_init                            0x08006244   Section        0  minimp3_adapter.o(i.mp3dec_init)
    i.pf_mount                               0x08006250   Section        0  pff.o(i.pf_mount)
    i.pf_open                                0x080063a8   Section        0  pff.o(i.pf_open)
    i.pf_opendir                             0x08006408   Section        0  pff.o(i.pf_opendir)
    i.pf_read                                0x0800645c   Section        0  pff.o(i.pf_read)
    i.pf_readdir                             0x08006548   Section        0  pff.o(i.pf_readdir)
    i.sd_acmd41_init                         0x080065a0   Section        0  sdcard_stub.o(i.sd_acmd41_init)
    sd_acmd41_init                           0x080065a1   Thumb Code   154  sdcard_stub.o(i.sd_acmd41_init)
    i.sd_clear_data_path                     0x08006660   Section        0  sdcard_stub.o(i.sd_clear_data_path)
    sd_clear_data_path                       0x08006661   Thumb Code    56  sdcard_stub.o(i.sd_clear_data_path)
    i.sd_cmd0                                0x0800669c   Section        0  sdcard_stub.o(i.sd_cmd0)
    sd_cmd0                                  0x0800669d   Thumb Code    18  sdcard_stub.o(i.sd_cmd0)
    i.sd_cmd2                                0x080066ae   Section        0  sdcard_stub.o(i.sd_cmd2)
    sd_cmd2                                  0x080066af   Thumb Code    24  sdcard_stub.o(i.sd_cmd2)
    i.sd_cmd8                                0x080066c8   Section        0  sdcard_stub.o(i.sd_cmd8)
    sd_cmd8                                  0x080066c9   Thumb Code    72  sdcard_stub.o(i.sd_cmd8)
    i.sd_debug_dump_probe                    0x08006730   Section        0  sdcard_stub.o(i.sd_debug_dump_probe)
    sd_debug_dump_probe                      0x08006731   Thumb Code   136  sdcard_stub.o(i.sd_debug_dump_probe)
    i.sd_debug_dump_regs                     0x080067c8   Section        0  sdcard_stub.o(i.sd_debug_dump_regs)
    sd_debug_dump_regs                       0x080067c9   Thumb Code    78  sdcard_stub.o(i.sd_debug_dump_regs)
    i.sd_debug_dump_sector_prefix            0x0800682c   Section        0  sdcard_stub.o(i.sd_debug_dump_sector_prefix)
    sd_debug_dump_sector_prefix              0x0800682d   Thumb Code   166  sdcard_stub.o(i.sd_debug_dump_sector_prefix)
    i.sd_debug_print                         0x080068e0   Section        0  sdcard_stub.o(i.sd_debug_print)
    sd_debug_print                           0x080068e1   Thumb Code    26  sdcard_stub.o(i.sd_debug_print)
    i.sd_debug_probe_addresses               0x08006904   Section        0  sdcard_stub.o(i.sd_debug_probe_addresses)
    sd_debug_probe_addresses                 0x08006905   Thumb Code   116  sdcard_stub.o(i.sd_debug_probe_addresses)
    i.sd_debug_sector0                       0x080069a0   Section        0  sdcard_stub.o(i.sd_debug_sector0)
    sd_debug_sector0                         0x080069a1   Thumb Code   120  sdcard_stub.o(i.sd_debug_sector0)
    i.sd_debug_step                          0x08006a34   Section        0  sdcard_stub.o(i.sd_debug_step)
    sd_debug_step                            0x08006a35   Thumb Code    72  sdcard_stub.o(i.sd_debug_step)
    i.sd_delay                               0x08006ad4   Section        0  sdcard_stub.o(i.sd_delay)
    sd_delay                                 0x08006ad5   Thumb Code    18  sdcard_stub.o(i.sd_delay)
    i.sd_get_rca                             0x08006ae8   Section        0  sdcard_stub.o(i.sd_get_rca)
    sd_get_rca                               0x08006ae9   Thumb Code    66  sdcard_stub.o(i.sd_get_rca)
    i.sd_gpio_init                           0x08006b40   Section        0  sdcard_stub.o(i.sd_gpio_init)
    sd_gpio_init                             0x08006b41   Thumb Code    68  sdcard_stub.o(i.sd_gpio_init)
    i.sd_ld_dword                            0x08006b8c   Section        0  sdcard_stub.o(i.sd_ld_dword)
    sd_ld_dword                              0x08006b8d   Thumb Code    24  sdcard_stub.o(i.sd_ld_dword)
    i.sd_read_data_polling                   0x08006ba4   Section        0  sdcard_stub.o(i.sd_read_data_polling)
    sd_read_data_polling                     0x08006ba5   Thumb Code   196  sdcard_stub.o(i.sd_read_data_polling)
    i.sd_read_raw_address_debug              0x08006cac   Section        0  sdcard_stub.o(i.sd_read_raw_address_debug)
    sd_read_raw_address_debug                0x08006cad   Thumb Code   106  sdcard_stub.o(i.sd_read_raw_address_debug)
    i.sd_sdio_clock_config                   0x08006d18   Section        0  sdcard_stub.o(i.sd_sdio_clock_config)
    sd_sdio_clock_config                     0x08006d19   Thumb Code    52  sdcard_stub.o(i.sd_sdio_clock_config)
    i.sd_select_card                         0x08006d50   Section        0  sdcard_stub.o(i.sd_select_card)
    sd_select_card                           0x08006d51   Thumb Code    26  sdcard_stub.o(i.sd_select_card)
    i.sd_send_command                        0x08006d70   Section        0  sdcard_stub.o(i.sd_send_command)
    sd_send_command                          0x08006d71   Thumb Code    54  sdcard_stub.o(i.sd_send_command)
    i.sd_set_block_length                    0x08006db4   Section        0  sdcard_stub.o(i.sd_set_block_length)
    sd_set_block_length                      0x08006db5   Thumb Code    34  sdcard_stub.o(i.sd_set_block_length)
    i.sd_set_bus_width_4bit                  0x08006ddc   Section        0  sdcard_stub.o(i.sd_set_bus_width_4bit)
    sd_set_bus_width_4bit                    0x08006ddd   Thumb Code    12  sdcard_stub.o(i.sd_set_bus_width_4bit)
    i.sd_wait_cmd_no_response                0x08006e14   Section        0  sdcard_stub.o(i.sd_wait_cmd_no_response)
    sd_wait_cmd_no_response                  0x08006e15   Thumb Code    96  sdcard_stub.o(i.sd_wait_cmd_no_response)
    i.sd_wait_cmd_response                   0x08006ea8   Section        0  sdcard_stub.o(i.sd_wait_cmd_response)
    sd_wait_cmd_response                     0x08006ea9   Thumb Code   212  sdcard_stub.o(i.sd_wait_cmd_response)
    i.sdcard_stub_init                       0x08006fd8   Section        0  sdcard_stub.o(i.sdcard_stub_init)
    i.sdcard_stub_is_ready                   0x080071d0   Section        0  sdcard_stub.o(i.sdcard_stub_is_ready)
    i.sdcard_stub_last_error_string          0x080071dc   Section        0  sdcard_stub.o(i.sdcard_stub_last_error_string)
    i.sdcard_stub_read_sector                0x080071e8   Section        0  sdcard_stub.o(i.sdcard_stub_read_sector)
    i.sdcard_stub_set_debug                  0x080072fc   Section        0  sdcard_stub.o(i.sdcard_stub_set_debug)
    x$fpl$dcmpinf                            0x08007310   Section       24  dcmpi.o(x$fpl$dcmpinf)
    x$fpl$dleqf                              0x08007328   Section      120  dleqf.o(x$fpl$dleqf)
    x$fpl$dnaninf                            0x080073a0   Section      156  dnaninf.o(x$fpl$dnaninf)
    x$fpl$dretinf                            0x0800743c   Section       12  dretinf.o(x$fpl$dretinf)
    x$fpl$drleqf                             0x08007448   Section      108  drleqf.o(x$fpl$drleqf)
    x$fpl$f2d                                0x080074b4   Section       86  f2d.o(x$fpl$f2d)
    x$fpl$fadd                               0x0800750c   Section      196  faddsub_clz.o(x$fpl$fadd)
    _fadd1                                   0x0800751b   Thumb Code     0  faddsub_clz.o(x$fpl$fadd)
    x$fpl$fcmpinf                            0x080075d0   Section       24  fcmpi.o(x$fpl$fcmpinf)
    x$fpl$fdiv                               0x080075e8   Section      388  fdiv.o(x$fpl$fdiv)
    _fdiv1                                   0x080075e9   Thumb Code     0  fdiv.o(x$fpl$fdiv)
    x$fpl$feqf                               0x0800776c   Section      104  feqf.o(x$fpl$feqf)
    x$fpl$ffix                               0x080077d4   Section       54  ffix.o(x$fpl$ffix)
    x$fpl$fflt                               0x0800780c   Section       48  fflt_clz.o(x$fpl$fflt)
    x$fpl$fmul                               0x0800783c   Section      258  fmul.o(x$fpl$fmul)
    x$fpl$fnaninf                            0x0800793e   Section      140  fnaninf.o(x$fpl$fnaninf)
    x$fpl$fretinf                            0x080079ca   Section       10  fretinf.o(x$fpl$fretinf)
    x$fpl$frsb                               0x080079d4   Section       20  faddsub_clz.o(x$fpl$frsb)
    x$fpl$fsub                               0x080079e8   Section      234  faddsub_clz.o(x$fpl$fsub)
    _fsub1                                   0x080079f7   Thumb Code     0  faddsub_clz.o(x$fpl$fsub)
    x$fpl$usenofp                            0x08007ad2   Section        0  usenofp.o(x$fpl$usenofp)
    .constdata                               0x08007ad4   Section       48  audio_player.o(.constdata)
    candidates                               0x08007ad4   Data          48  audio_player.o(.constdata)
    .constdata                               0x08007b04   Section       96  board_audio.o(.constdata)
    audio_test_wave                          0x08007b04   Data          96  board_audio.o(.constdata)
    .constdata                               0x08007b64   Section      128  pff.o(.constdata)
    cvt                                      0x08007b64   Data         128  pff.o(.constdata)
    .constdata                               0x08007be4   Section     7884  minimp3_adapter.o(.constdata)
    g_pow43                                  0x08007be4   Data         580  minimp3_adapter.o(.constdata)
    halfrate                                 0x08007e28   Data          90  minimp3_adapter.o(.constdata)
    g_hz                                     0x08007e84   Data          12  minimp3_adapter.o(.constdata)
    g_alloc_L1                               0x08007e90   Data           3  minimp3_adapter.o(.constdata)
    g_alloc_L2M2                             0x08007e93   Data           9  minimp3_adapter.o(.constdata)
    g_alloc_L2M1                             0x08007e9c   Data          12  minimp3_adapter.o(.constdata)
    g_alloc_L2M1_lowrate                     0x08007ea8   Data           6  minimp3_adapter.o(.constdata)
    g_deq_L12                                0x08007eb0   Data         216  minimp3_adapter.o(.constdata)
    g_bitalloc_code_tab                      0x08007f88   Data          92  minimp3_adapter.o(.constdata)
    g_scf_long                               0x08007fe4   Data         184  minimp3_adapter.o(.constdata)
    g_scf_short                              0x0800809c   Data         320  minimp3_adapter.o(.constdata)
    g_scf_mixed                              0x080081dc   Data         320  minimp3_adapter.o(.constdata)
    g_expfrac                                0x0800831c   Data          16  minimp3_adapter.o(.constdata)
    g_scf_partitions                         0x0800832c   Data          84  minimp3_adapter.o(.constdata)
    g_scfc_decode                            0x08008380   Data          16  minimp3_adapter.o(.constdata)
    g_mod                                    0x08008390   Data          24  minimp3_adapter.o(.constdata)
    g_preamp                                 0x080083a8   Data          10  minimp3_adapter.o(.constdata)
    tabs                                     0x080083b2   Data        4328  minimp3_adapter.o(.constdata)
    tab32                                    0x0800949a   Data          28  minimp3_adapter.o(.constdata)
    tab33                                    0x080094b6   Data          16  minimp3_adapter.o(.constdata)
    tabindex                                 0x080094c6   Data          64  minimp3_adapter.o(.constdata)
    g_linbits                                0x08009506   Data          32  minimp3_adapter.o(.constdata)
    g_pan                                    0x08009528   Data          56  minimp3_adapter.o(.constdata)
    g_aa                                     0x08009560   Data          64  minimp3_adapter.o(.constdata)
    g_twid9                                  0x080095a0   Data          72  minimp3_adapter.o(.constdata)
    g_twid3                                  0x080095e8   Data          24  minimp3_adapter.o(.constdata)
    g_mdct_window                            0x08009600   Data         144  minimp3_adapter.o(.constdata)
    g_sec                                    0x08009690   Data          96  minimp3_adapter.o(.constdata)
    g_win                                    0x080096f0   Data         960  minimp3_adapter.o(.constdata)
    .constdata                               0x08009ab0   Section       40  _printf_hex_int.o(.constdata)
    uc_hextab                                0x08009ab0   Data          20  _printf_hex_int.o(.constdata)
    lc_hextab                                0x08009ac4   Data          20  _printf_hex_int.o(.constdata)
    .constdata                               0x08009ad8   Section       17  __printf_flags_ss_wp.o(.constdata)
    maptable                                 0x08009ad8   Data          17  __printf_flags_ss_wp.o(.constdata)
    .conststring                             0x08009aec   Section      411  main.o(.conststring)
    .conststring                             0x08009c88   Section      241  audio_player.o(.conststring)
    .conststring                             0x08009d7c   Section      628  sdcard_stub.o(.conststring)
    .data                                    0x20000000   Section        1  exti.o(.data)
    .data                                    0x20000004   Section        8  usart.o(.data)
    .data                                    0x2000000c   Section       12  audio_player.o(.data)
    g_audio_debug_enabled                    0x2000000c   Data           4  audio_player.o(.data)
    g_audio_debug_printer                    0x20000010   Data           4  audio_player.o(.data)
    scanned                                  0x20000014   Data           4  audio_player.o(.data)
    .data                                    0x20000018   Section        1  board_audio.o(.data)
    g_es8311_addr_write                      0x20000018   Data           1  board_audio.o(.data)
    .data                                    0x2000001c   Section       56  sdcard_stub.o(.data)
    g_sd_rca                                 0x2000001c   Data           4  sdcard_stub.o(.data)
    g_sd_ready                               0x20000020   Data           4  sdcard_stub.o(.data)
    g_sd_v2                                  0x20000024   Data           4  sdcard_stub.o(.data)
    g_sd_high_capacity                       0x20000028   Data           4  sdcard_stub.o(.data)
    g_sd_last_error                          0x2000002c   Data           4  sdcard_stub.o(.data)
    g_sd_debug_enabled                       0x20000030   Data           4  sdcard_stub.o(.data)
    g_sd_debug_printer                       0x20000034   Data           4  sdcard_stub.o(.data)
    g_sd_last_sta                            0x20000038   Data           4  sdcard_stub.o(.data)
    g_sd_last_resp1                          0x2000003c   Data           4  sdcard_stub.o(.data)
    g_sd_last_cmdresp                        0x20000040   Data           4  sdcard_stub.o(.data)
    g_sd_read_count                          0x20000044   Data           4  sdcard_stub.o(.data)
    g_sd_read_error_count                    0x20000048   Data           4  sdcard_stub.o(.data)
    g_sd_last_read_sig                       0x2000004c   Data           4  sdcard_stub.o(.data)
    probed                                   0x20000050   Data           4  sdcard_stub.o(.data)
    .data                                    0x20000054   Section        4  pff.o(.data)
    FatFs                                    0x20000054   Data           4  pff.o(.data)
    .data                                    0x20000058   Section       20  stm32f10x_rcc.o(.data)
    APBAHBPrescTable                         0x20000058   Data          16  stm32f10x_rcc.o(.data)
    ADCPrescTable                            0x20000068   Data           4  stm32f10x_rcc.o(.data)
    .bss                                     0x2000006c   Section      128  usart.o(.bss)
    .bss                                     0x200000ec   Section    16564  audio_player.o(.bss)
    g_fs                                     0x200000ec   Data          44  audio_player.o(.bss)
    g_last_error                             0x20000118   Data          96  audio_player.o(.bss)
    g_mp3d                                   0x20000178   Data        6668  audio_player.o(.bss)
    g_stats                                  0x20001b84   Data          28  audio_player.o(.bss)
    scan_sector                              0x20001ba0   Data         512  audio_player.o(.bss)
    sector                                   0x20001da0   Data         512  audio_player.o(.bss)
    file_buf                                 0x20001fa0   Data        4096  audio_player.o(.bss)
    pcm                                      0x20002fa0   Data        4608  audio_player.o(.bss)
    .bss                                     0x200041a0   Section    16016  audio_record.o(.bss)
    g_record_buffer                          0x200041a0   Data       16000  audio_record.o(.bss)
    g_record_debug                           0x20008020   Data          16  audio_record.o(.bss)
    .bss                                     0x20008030   Section       72  board_audio.o(.bss)
    g_audio_debug                            0x20008030   Data          72  board_audio.o(.bss)
    .bss                                     0x20008078   Section      512  sdcard_stub.o(.bss)
    probe_sector                             0x20008078   Data         512  sdcard_stub.o(.bss)
    .bss                                     0x20008278   Section      512  diskio.o(.bss)
    sector_buf                               0x20008278   Data         512  diskio.o(.bss)
    .bss                                     0x20008478   Section       96  libspace.o(.bss)
    HEAP                                     0x200084d8   Section      512  startup_stm32f10x_hd.o(HEAP)
    Heap_Mem                                 0x200084d8   Data         512  startup_stm32f10x_hd.o(HEAP)
    STACK                                    0x200086d8   Section     4096  startup_stm32f10x_hd.o(STACK)
    Stack_Mem                                0x200086d8   Data        4096  startup_stm32f10x_hd.o(STACK)
    __initial_sp                             0x200096d8   Data           0  startup_stm32f10x_hd.o(STACK)

    Global Symbols

    Symbol Name                              Value     Ov Type        Size  Object(Section)

    BuildAttributes$$THM_ISAv4$P$D$K$B$S$PE$A:L22UL41UL21$X:L11$S22US41US21$IEEE1$IW$USESV6$~STKCKD$USESV7$~SHL$OSPACE$ROPI$EBA8$UX$STANDARDLIB$REQ8$PRES8$EABIv2 0x00000000   Number         0  anon$$obj.o ABSOLUTE
    __ARM_use_no_argv                        0x00000000   Number         0  main.o ABSOLUTE
    _printf_flags                            0x00000000   Number         0  printf_stubs.o ABSOLUTE
    _printf_return_value                     0x00000000   Number         0  printf_stubs.o ABSOLUTE
    _printf_sizespec                         0x00000000   Number         0  printf_stubs.o ABSOLUTE
    _printf_widthprec                        0x00000000   Number         0  printf_stubs.o ABSOLUTE
    __ARM_exceptions_init                     - Undefined Weak Reference
    __alloca_initialize                       - Undefined Weak Reference
    __arm_fini_                               - Undefined Weak Reference
    __arm_preinit_                            - Undefined Weak Reference
    __cpp_initialize__aeabi_                  - Undefined Weak Reference
    __cxa_finalize                            - Undefined Weak Reference
    __rt_locale                               - Undefined Weak Reference
    __sigvec_lookup                           - Undefined Weak Reference
    _atexit_init                              - Undefined Weak Reference
    _call_atexit_fns                          - Undefined Weak Reference
    _clock_init                               - Undefined Weak Reference
    _fp_trap_init                             - Undefined Weak Reference
    _fp_trap_shutdown                         - Undefined Weak Reference
    _get_lc_collate                           - Undefined Weak Reference
    _get_lc_ctype                             - Undefined Weak Reference
    _get_lc_monetary                          - Undefined Weak Reference
    _get_lc_numeric                           - Undefined Weak Reference
    _get_lc_time                              - Undefined Weak Reference
    _getenv_init                              - Undefined Weak Reference
    _handle_redirection                       - Undefined Weak Reference
    _init_alloc                               - Undefined Weak Reference
    _init_user_alloc                          - Undefined Weak Reference
    _initio                                   - Undefined Weak Reference
    _mutex_acquire                            - Undefined Weak Reference
    _mutex_release                            - Undefined Weak Reference
    _printf_mbtowc                            - Undefined Weak Reference
    _printf_truncate_signed                   - Undefined Weak Reference
    _printf_truncate_unsigned                 - Undefined Weak Reference
    _rand_init                                - Undefined Weak Reference
    _signal_finish                            - Undefined Weak Reference
    _signal_init                              - Undefined Weak Reference
    _terminate_alloc                          - Undefined Weak Reference
    _terminate_user_alloc                     - Undefined Weak Reference
    _terminateio                              - Undefined Weak Reference
    __Vectors_Size                           0x00000130   Number         0  startup_stm32f10x_hd.o ABSOLUTE
    __Vectors                                0x08000000   Data           4  startup_stm32f10x_hd.o(RESET)
    __Vectors_End                            0x08000130   Data           0  startup_stm32f10x_hd.o(RESET)
    __main                                   0x08000131   Thumb Code     8  __main.o(!!!main)
    __scatterload                            0x08000139   Thumb Code     0  __scatter.o(!!!scatter)
    __scatterload_rt2                        0x08000139   Thumb Code    44  __scatter.o(!!!scatter)
    __scatterload_rt2_thumb_only             0x08000139   Thumb Code     0  __scatter.o(!!!scatter)
    __scatterload_null                       0x08000147   Thumb Code     0  __scatter.o(!!!scatter)
    __scatterload_copy                       0x0800016d   Thumb Code    26  __scatter_copy.o(!!handler_copy)
    __scatterload_zeroinit                   0x08000189   Thumb Code    28  __scatter_zi.o(!!handler_zi)
    _printf_d                                0x080001a5   Thumb Code     0  _printf_d.o(.ARM.Collect$$_printf_percent$$00000009)
    _printf_percent                          0x080001a5   Thumb Code     0  _printf_percent.o(.ARM.Collect$$_printf_percent$$00000000)
    _printf_u                                0x080001ab   Thumb Code     0  _printf_u.o(.ARM.Collect$$_printf_percent$$0000000A)
    _printf_x                                0x080001b1   Thumb Code     0  _printf_x.o(.ARM.Collect$$_printf_percent$$0000000C)
    _printf_s                                0x080001b7   Thumb Code     0  _printf_s.o(.ARM.Collect$$_printf_percent$$00000014)
    _printf_percent_end                      0x080001bd   Thumb Code     0  _printf_percent_end.o(.ARM.Collect$$_printf_percent$$00000017)
    __rt_lib_init                            0x080001c1   Thumb Code     0  libinit.o(.ARM.Collect$$libinit$$00000000)
    __rt_lib_init_alloca_1                   0x080001c3   Thumb Code     0  libinit2.o(.ARM.Collect$$libinit$$0000002E)
    __rt_lib_init_argv_1                     0x080001c3   Thumb Code     0  libinit2.o(.ARM.Collect$$libinit$$0000002C)
    __rt_lib_init_atexit_1                   0x080001c3   Thumb Code     0  libinit2.o(.ARM.Collect$$libinit$$0000001B)
    __rt_lib_init_clock_1                    0x080001c3   Thumb Code     0  libinit2.o(.ARM.Collect$$libinit$$00000021)
    __rt_lib_init_cpp_1                      0x080001c3   Thumb Code     0  libinit2.o(.ARM.Collect$$libinit$$00000032)
    __rt_lib_init_exceptions_1               0x080001c3   Thumb Code     0  libinit2.o(.ARM.Collect$$libinit$$00000030)
    __rt_lib_init_fp_1                       0x080001c3   Thumb Code     0  libinit2.o(.ARM.Collect$$libinit$$00000002)
    __rt_lib_init_fp_trap_1                  0x080001c3   Thumb Code     0  libinit2.o(.ARM.Collect$$libinit$$0000001F)
    __rt_lib_init_getenv_1                   0x080001c3   Thumb Code     0  libinit2.o(.ARM.Collect$$libinit$$00000023)
    __rt_lib_init_heap_1                     0x080001c3   Thumb Code     0  libinit2.o(.ARM.Collect$$libinit$$0000000A)
    __rt_lib_init_lc_collate_1               0x080001c3   Thumb Code     0  libinit2.o(.ARM.Collect$$libinit$$00000011)
    __rt_lib_init_lc_ctype_1                 0x080001c3   Thumb Code     0  libinit2.o(.ARM.Collect$$libinit$$00000013)
    __rt_lib_init_lc_monetary_1              0x080001c3   Thumb Code     0  libinit2.o(.ARM.Collect$$libinit$$00000015)
    __rt_lib_init_lc_numeric_1               0x080001c3   Thumb Code     0  libinit2.o(.ARM.Collect$$libinit$$00000017)
    __rt_lib_init_lc_time_1                  0x080001c3   Thumb Code     0  libinit2.o(.ARM.Collect$$libinit$$00000019)
    __rt_lib_init_preinit_1                  0x080001c3   Thumb Code     0  libinit2.o(.ARM.Collect$$libinit$$00000004)
    __rt_lib_init_rand_1                     0x080001c3   Thumb Code     0  libinit2.o(.ARM.Collect$$libinit$$0000000E)
    __rt_lib_init_return                     0x080001c3   Thumb Code     0  libinit2.o(.ARM.Collect$$libinit$$00000033)
    __rt_lib_init_signal_1                   0x080001c3   Thumb Code     0  libinit2.o(.ARM.Collect$$libinit$$0000001D)
    __rt_lib_init_stdio_1                    0x080001c3   Thumb Code     0  libinit2.o(.ARM.Collect$$libinit$$00000025)
    __rt_lib_init_user_alloc_1               0x080001c3   Thumb Code     0  libinit2.o(.ARM.Collect$$libinit$$0000000C)
    __rt_lib_shutdown                        0x080001c5   Thumb Code     0  libshutdown.o(.ARM.Collect$$libshutdown$$00000000)
    __rt_lib_shutdown_cpp_1                  0x080001c7   Thumb Code     0  libshutdown2.o(.ARM.Collect$$libshutdown$$00000004)
    __rt_lib_shutdown_fini_1                 0x080001c7   Thumb Code     0  libshutdown2.o(.ARM.Collect$$libshutdown$$00000002)
    __rt_lib_shutdown_fp_trap_1              0x080001c7   Thumb Code     0  libshutdown2.o(.ARM.Collect$$libshutdown$$00000009)
    __rt_lib_shutdown_heap_1                 0x080001c7   Thumb Code     0  libshutdown2.o(.ARM.Collect$$libshutdown$$00000011)
    __rt_lib_shutdown_return                 0x080001c7   Thumb Code     0  libshutdown2.o(.ARM.Collect$$libshutdown$$00000012)
    __rt_lib_shutdown_signal_1               0x080001c7   Thumb Code     0  libshutdown2.o(.ARM.Collect$$libshutdown$$0000000C)
    __rt_lib_shutdown_stdio_1                0x080001c7   Thumb Code     0  libshutdown2.o(.ARM.Collect$$libshutdown$$00000006)
    __rt_lib_shutdown_user_alloc_1           0x080001c7   Thumb Code     0  libshutdown2.o(.ARM.Collect$$libshutdown$$0000000E)
    __rt_entry                               0x080001c9   Thumb Code     0  __rtentry.o(.ARM.Collect$$rtentry$$00000000)
    __rt_entry_presh_1                       0x080001c9   Thumb Code     0  __rtentry2.o(.ARM.Collect$$rtentry$$00000002)
    __rt_entry_sh                            0x080001c9   Thumb Code     0  __rtentry4.o(.ARM.Collect$$rtentry$$00000004)
    __rt_entry_li                            0x080001cf   Thumb Code     0  __rtentry2.o(.ARM.Collect$$rtentry$$0000000A)
    __rt_entry_postsh_1                      0x080001cf   Thumb Code     0  __rtentry2.o(.ARM.Collect$$rtentry$$00000009)
    __rt_entry_main                          0x080001d3   Thumb Code     0  __rtentry2.o(.ARM.Collect$$rtentry$$0000000D)
    __rt_entry_postli_1                      0x080001d3   Thumb Code     0  __rtentry2.o(.ARM.Collect$$rtentry$$0000000C)
    __rt_exit                                0x080001db   Thumb Code     0  rtexit.o(.ARM.Collect$$rtexit$$00000000)
    __rt_exit_ls                             0x080001dd   Thumb Code     0  rtexit2.o(.ARM.Collect$$rtexit$$00000003)
    __rt_exit_prels_1                        0x080001dd   Thumb Code     0  rtexit2.o(.ARM.Collect$$rtexit$$00000002)
    __rt_exit_exit                           0x080001e1   Thumb Code     0  rtexit2.o(.ARM.Collect$$rtexit$$00000004)
    Reset_Handler                            0x080001e9   Thumb Code     8  startup_stm32f10x_hd.o(.text)
    ADC1_2_IRQHandler                        0x08000203   Thumb Code     0  startup_stm32f10x_hd.o(.text)
    ADC3_IRQHandler                          0x08000203   Thumb Code     0  startup_stm32f10x_hd.o(.text)
    CAN1_RX1_IRQHandler                      0x08000203   Thumb Code     0  startup_stm32f10x_hd.o(.text)
    CAN1_SCE_IRQHandler                      0x08000203   Thumb Code     0  startup_stm32f10x_hd.o(.text)
    DMA1_Channel1_IRQHandler                 0x08000203   Thumb Code     0  startup_stm32f10x_hd.o(.text)
    DMA1_Channel2_IRQHandler                 0x08000203   Thumb Code     0  startup_stm32f10x_hd.o(.text)
    DMA1_Channel3_IRQHandler                 0x08000203   Thumb Code     0  startup_stm32f10x_hd.o(.text)
    DMA1_Channel4_IRQHandler                 0x08000203   Thumb Code     0  startup_stm32f10x_hd.o(.text)
    DMA1_Channel5_IRQHandler                 0x08000203   Thumb Code     0  startup_stm32f10x_hd.o(.text)
    DMA1_Channel6_IRQHandler                 0x08000203   Thumb Code     0  startup_stm32f10x_hd.o(.text)
    DMA1_Channel7_IRQHandler                 0x08000203   Thumb Code     0  startup_stm32f10x_hd.o(.text)
    DMA2_Channel1_IRQHandler                 0x08000203   Thumb Code     0  startup_stm32f10x_hd.o(.text)
    DMA2_Channel2_IRQHandler                 0x08000203   Thumb Code     0  startup_stm32f10x_hd.o(.text)
    DMA2_Channel3_IRQHandler                 0x08000203   Thumb Code     0  startup_stm32f10x_hd.o(.text)
    DMA2_Channel4_5_IRQHandler               0x08000203   Thumb Code     0  startup_stm32f10x_hd.o(.text)
    EXTI0_IRQHandler                         0x08000203   Thumb Code     0  startup_stm32f10x_hd.o(.text)
    EXTI15_10_IRQHandler                     0x08000203   Thumb Code     0  startup_stm32f10x_hd.o(.text)
    EXTI2_IRQHandler                         0x08000203   Thumb Code     0  startup_stm32f10x_hd.o(.text)
    EXTI3_IRQHandler                         0x08000203   Thumb Code     0  startup_stm32f10x_hd.o(.text)
    EXTI4_IRQHandler                         0x08000203   Thumb Code     0  startup_stm32f10x_hd.o(.text)
    EXTI9_5_IRQHandler                       0x08000203   Thumb Code     0  startup_stm32f10x_hd.o(.text)
    FLASH_IRQHandler                         0x08000203   Thumb Code     0  startup_stm32f10x_hd.o(.text)
    FSMC_IRQHandler                          0x08000203   Thumb Code     0  startup_stm32f10x_hd.o(.text)
    I2C1_ER_IRQHandler                       0x08000203   Thumb Code     0  startup_stm32f10x_hd.o(.text)
    I2C1_EV_IRQHandler                       0x08000203   Thumb Code     0  startup_stm32f10x_hd.o(.text)
    I2C2_ER_IRQHandler                       0x08000203   Thumb Code     0  startup_stm32f10x_hd.o(.text)
    I2C2_EV_IRQHandler                       0x08000203   Thumb Code     0  startup_stm32f10x_hd.o(.text)
    PVD_IRQHandler                           0x08000203   Thumb Code     0  startup_stm32f10x_hd.o(.text)
    RCC_IRQHandler                           0x08000203   Thumb Code     0  startup_stm32f10x_hd.o(.text)
    RTCAlarm_IRQHandler                      0x08000203   Thumb Code     0  startup_stm32f10x_hd.o(.text)
    RTC_IRQHandler                           0x08000203   Thumb Code     0  startup_stm32f10x_hd.o(.text)
    SDIO_IRQHandler                          0x08000203   Thumb Code     0  startup_stm32f10x_hd.o(.text)
    SPI1_IRQHandler                          0x08000203   Thumb Code     0  startup_stm32f10x_hd.o(.text)
    SPI2_IRQHandler                          0x08000203   Thumb Code     0  startup_stm32f10x_hd.o(.text)
    SPI3_IRQHandler                          0x08000203   Thumb Code     0  startup_stm32f10x_hd.o(.text)
    TAMPER_IRQHandler                        0x08000203   Thumb Code     0  startup_stm32f10x_hd.o(.text)
    TIM1_BRK_IRQHandler                      0x08000203   Thumb Code     0  startup_stm32f10x_hd.o(.text)
    TIM1_CC_IRQHandler                       0x08000203   Thumb Code     0  startup_stm32f10x_hd.o(.text)
    TIM1_TRG_COM_IRQHandler                  0x08000203   Thumb Code     0  startup_stm32f10x_hd.o(.text)
    TIM1_UP_IRQHandler                       0x08000203   Thumb Code     0  startup_stm32f10x_hd.o(.text)
    TIM2_IRQHandler                          0x08000203   Thumb Code     0  startup_stm32f10x_hd.o(.text)
    TIM3_IRQHandler                          0x08000203   Thumb Code     0  startup_stm32f10x_hd.o(.text)
    TIM4_IRQHandler                          0x08000203   Thumb Code     0  startup_stm32f10x_hd.o(.text)
    TIM5_IRQHandler                          0x08000203   Thumb Code     0  startup_stm32f10x_hd.o(.text)
    TIM6_IRQHandler                          0x08000203   Thumb Code     0  startup_stm32f10x_hd.o(.text)
    TIM7_IRQHandler                          0x08000203   Thumb Code     0  startup_stm32f10x_hd.o(.text)
    TIM8_BRK_IRQHandler                      0x08000203   Thumb Code     0  startup_stm32f10x_hd.o(.text)
    TIM8_CC_IRQHandler                       0x08000203   Thumb Code     0  startup_stm32f10x_hd.o(.text)
    TIM8_TRG_COM_IRQHandler                  0x08000203   Thumb Code     0  startup_stm32f10x_hd.o(.text)
    TIM8_UP_IRQHandler                       0x08000203   Thumb Code     0  startup_stm32f10x_hd.o(.text)
    UART4_IRQHandler                         0x08000203   Thumb Code     0  startup_stm32f10x_hd.o(.text)
    UART5_IRQHandler                         0x08000203   Thumb Code     0  startup_stm32f10x_hd.o(.text)
    USART2_IRQHandler                        0x08000203   Thumb Code     0  startup_stm32f10x_hd.o(.text)
    USART3_IRQHandler                        0x08000203   Thumb Code     0  startup_stm32f10x_hd.o(.text)
    USBWakeUp_IRQHandler                     0x08000203   Thumb Code     0  startup_stm32f10x_hd.o(.text)
    USB_HP_CAN1_TX_IRQHandler                0x08000203   Thumb Code     0  startup_stm32f10x_hd.o(.text)
    USB_LP_CAN1_RX0_IRQHandler               0x08000203   Thumb Code     0  startup_stm32f10x_hd.o(.text)
    WWDG_IRQHandler                          0x08000203   Thumb Code     0  startup_stm32f10x_hd.o(.text)
    __user_initial_stackheap                 0x08000205   Thumb Code     0  startup_stm32f10x_hd.o(.text)
    __use_no_semihosting                     0x08000229   Thumb Code     2  use_no_semi_2.o(.text)
    __2printf                                0x0800022d   Thumb Code    20  noretval__2printf.o(.text)
    __2sprintf                               0x08000245   Thumb Code    34  noretval__2sprintf.o(.text)
    _printf_pre_padding                      0x0800026d   Thumb Code    44  _printf_pad.o(.text)
    _printf_post_padding                     0x08000299   Thumb Code    34  _printf_pad.o(.text)
    _printf_str                              0x080002bb   Thumb Code    82  _printf_str.o(.text)
    _printf_int_dec                          0x0800030d   Thumb Code   104  _printf_dec.o(.text)
    _printf_int_hex                          0x08000385   Thumb Code    84  _printf_hex_int.o(.text)
    _printf_longlong_hex                     0x08000385   Thumb Code     0  _printf_hex_int.o(.text)
    __printf                                 0x080003dd   Thumb Code   388  __printf_flags_ss_wp.o(.text)
    memcmp                                   0x08000565   Thumb Code    88  memcmp.o(.text)
    __aeabi_memcpy                           0x080005bd   Thumb Code     0  rt_memcpy_v6.o(.text)
    __rt_memcpy                              0x080005bd   Thumb Code   138  rt_memcpy_v6.o(.text)
    _memcpy_lastbytes                        0x08000623   Thumb Code     0  rt_memcpy_v6.o(.text)
    __aeabi_memmove                          0x08000647   Thumb Code     0  rt_memmove_v6.o(.text)
    __rt_memmove                             0x08000647   Thumb Code   132  rt_memmove_v6.o(.text)
    __memmove_lastfew                        0x080006a7   Thumb Code     0  rt_memmove_v6.o(.text)
    __aeabi_memcpy4                          0x080006cb   Thumb Code     0  rt_memcpy_w.o(.text)
    __aeabi_memcpy8                          0x080006cb   Thumb Code     0  rt_memcpy_w.o(.text)
    __rt_memcpy_w                            0x080006cb   Thumb Code   100  rt_memcpy_w.o(.text)
    _memcpy_lastbytes_aligned                0x08000713   Thumb Code     0  rt_memcpy_w.o(.text)
    __aeabi_memclr                           0x0800072f   Thumb Code     0  rt_memclr.o(.text)
    __rt_memclr                              0x0800072f   Thumb Code    68  rt_memclr.o(.text)
    _memset                                  0x08000733   Thumb Code     0  rt_memclr.o(.text)
    __aeabi_memclr4                          0x08000773   Thumb Code     0  rt_memclr_w.o(.text)
    __aeabi_memclr8                          0x08000773   Thumb Code     0  rt_memclr_w.o(.text)
    __rt_memclr_w                            0x08000773   Thumb Code    78  rt_memclr_w.o(.text)
    _memset_w                                0x08000777   Thumb Code     0  rt_memclr_w.o(.text)
    __use_two_region_memory                  0x080007c1   Thumb Code     2  heapauxi.o(.text)
    __rt_heap_escrow$2region                 0x080007c3   Thumb Code     2  heapauxi.o(.text)
    __rt_heap_expand$2region                 0x080007c5   Thumb Code     2  heapauxi.o(.text)
    __I$use$semihosting                      0x080007c7   Thumb Code     0  use_no_semi.o(.text)
    __use_no_semihosting_swi                 0x080007c7   Thumb Code     2  use_no_semi.o(.text)
    _printf_int_common                       0x080007c9   Thumb Code   178  _printf_intcommon.o(.text)
    _printf_char_common                      0x08000887   Thumb Code    32  _printf_char_common.o(.text)
    _sputc                                   0x080008ad   Thumb Code    10  _sputc.o(.text)
    _printf_cs_common                        0x080008b7   Thumb Code    20  _printf_char.o(.text)
    _printf_char                             0x080008cb   Thumb Code    16  _printf_char.o(.text)
    _printf_string                           0x080008db   Thumb Code     8  _printf_char.o(.text)
    _printf_char_file                        0x080008e5   Thumb Code    32  _printf_char_file.o(.text)
    __aeabi_memmove4                         0x08000909   Thumb Code     0  rt_memmove_w.o(.text)
    __aeabi_memmove8                         0x08000909   Thumb Code     0  rt_memmove_w.o(.text)
    __rt_memmove_w                           0x08000909   Thumb Code   122  rt_memmove_w.o(.text)
    __memmove_aligned                        0x0800092f   Thumb Code     0  rt_memmove_w.o(.text)
    __memmove_lastfew_aligned                0x08000967   Thumb Code     0  rt_memmove_w.o(.text)
    ferror                                   0x08000983   Thumb Code     8  ferror.o(.text)
    __user_setup_stackheap                   0x0800098b   Thumb Code    74  sys_stackheap_outer.o(.text)
    exit                                     0x080009d5   Thumb Code    18  exit.o(.text)
    __user_libspace                          0x080009e9   Thumb Code     8  libspace.o(.text)
    __user_perproc_libspace                  0x080009e9   Thumb Code     0  libspace.o(.text)
    __user_perthread_libspace                0x080009e9   Thumb Code     0  libspace.o(.text)
    BusFault_Handler                         0x080009f1   Thumb Code     4  stm32f10x_it.o(i.BusFault_Handler)
    DebugMon_Handler                         0x080009f5   Thumb Code     2  stm32f10x_it.o(i.DebugMon_Handler)
    EXTI1_IRQHandler                         0x080009f9   Thumb Code    70  exti.o(i.EXTI1_IRQHandler)
    EXTI_ClearITPendingBit                   0x08000a4d   Thumb Code     6  stm32f10x_exti.o(i.EXTI_ClearITPendingBit)
    GPIO_Init                                0x08000a59   Thumb Code   278  stm32f10x_gpio.o(i.GPIO_Init)
    GPIO_PinRemapConfig                      0x08000b71   Thumb Code   138  stm32f10x_gpio.o(i.GPIO_PinRemapConfig)
    GPIO_ReadInputDataBit                    0x08000c01   Thumb Code    18  stm32f10x_gpio.o(i.GPIO_ReadInputDataBit)
    GPIO_ReadOutputDataBit                   0x08000c13   Thumb Code    18  stm32f10x_gpio.o(i.GPIO_ReadOutputDataBit)
    GPIO_ResetBits                           0x08000c25   Thumb Code     4  stm32f10x_gpio.o(i.GPIO_ResetBits)
    GPIO_SetBits                             0x08000c29   Thumb Code     4  stm32f10x_gpio.o(i.GPIO_SetBits)
    GPIO_WriteBit                            0x08000c2d   Thumb Code    10  stm32f10x_gpio.o(i.GPIO_WriteBit)
    HardFault_Handler                        0x08000c37   Thumb Code     4  stm32f10x_it.o(i.HardFault_Handler)
    I2S_Cmd                                  0x08000c3b   Thumb Code    24  stm32f10x_spi.o(i.I2S_Cmd)
    I2S_Init                                 0x08000c55   Thumb Code   226  stm32f10x_spi.o(i.I2S_Init)
    MX_USART1_Init                           0x08002699   Thumb Code   180  usart.o(i.MX_USART1_Init)
    MemManage_Handler                        0x08002755   Thumb Code     4  stm32f10x_it.o(i.MemManage_Handler)
    NMI_Handler                              0x08002759   Thumb Code     2  stm32f10x_it.o(i.NMI_Handler)
    NVIC_Init                                0x0800275d   Thumb Code   100  misc.o(i.NVIC_Init)
    NVIC_PriorityGroupConfig                 0x080027cd   Thumb Code    10  misc.o(i.NVIC_PriorityGroupConfig)
    PendSV_Handler                           0x080027e1   Thumb Code     2  stm32f10x_it.o(i.PendSV_Handler)
    RCC_AHBPeriphClockCmd                    0x080027e5   Thumb Code    26  stm32f10x_rcc.o(i.RCC_AHBPeriphClockCmd)
    RCC_APB1PeriphClockCmd                   0x08002805   Thumb Code    26  stm32f10x_rcc.o(i.RCC_APB1PeriphClockCmd)
    RCC_APB1PeriphResetCmd                   0x08002825   Thumb Code    26  stm32f10x_rcc.o(i.RCC_APB1PeriphResetCmd)
    RCC_APB2PeriphClockCmd                   0x08002845   Thumb Code    26  stm32f10x_rcc.o(i.RCC_APB2PeriphClockCmd)
    RCC_APB2PeriphResetCmd                   0x08002865   Thumb Code    26  stm32f10x_rcc.o(i.RCC_APB2PeriphResetCmd)
    RCC_GetClocksFreq                        0x08002885   Thumb Code   192  stm32f10x_rcc.o(i.RCC_GetClocksFreq)
    SDIO_ClearFlag                           0x08002959   Thumb Code     6  stm32f10x_sdio.o(i.SDIO_ClearFlag)
    SDIO_ClockCmd                            0x08002965   Thumb Code     6  stm32f10x_sdio.o(i.SDIO_ClockCmd)
    SDIO_DataConfig                          0x08002971   Thumb Code    42  stm32f10x_sdio.o(i.SDIO_DataConfig)
    SDIO_DeInit                              0x080029a1   Thumb Code    28  stm32f10x_sdio.o(i.SDIO_DeInit)
    SDIO_GetCommandResponse                  0x080029c5   Thumb Code     8  stm32f10x_sdio.o(i.SDIO_GetCommandResponse)
    SDIO_GetFlagStatus                       0x080029d1   Thumb Code    20  stm32f10x_sdio.o(i.SDIO_GetFlagStatus)
    SDIO_GetResponse                         0x080029e9   Thumb Code    20  stm32f10x_sdio.o(i.SDIO_GetResponse)
    SDIO_Init                                0x08002a01   Thumb Code    42  stm32f10x_sdio.o(i.SDIO_Init)
    SDIO_ReadData                            0x08002a31   Thumb Code     6  stm32f10x_sdio.o(i.SDIO_ReadData)
    SDIO_SendCommand                         0x08002a3d   Thumb Code    38  stm32f10x_sdio.o(i.SDIO_SendCommand)
    SDIO_SetPowerState                       0x08002a69   Thumb Code    22  stm32f10x_sdio.o(i.SDIO_SetPowerState)
    SPI_I2S_DeInit                           0x08002a85   Thumb Code    76  stm32f10x_spi.o(i.SPI_I2S_DeInit)
    SPI_I2S_GetFlagStatus                    0x08002add   Thumb Code    18  stm32f10x_spi.o(i.SPI_I2S_GetFlagStatus)
    SPI_I2S_ReceiveData                      0x08002aef   Thumb Code     6  stm32f10x_spi.o(i.SPI_I2S_ReceiveData)
    SPI_I2S_SendData                         0x08002af5   Thumb Code     4  stm32f10x_spi.o(i.SPI_I2S_SendData)
    SVC_Handler                              0x08002af9   Thumb Code     2  stm32f10x_it.o(i.SVC_Handler)
    SysTick_CLKSourceConfig                  0x08002be5   Thumb Code    40  misc.o(i.SysTick_CLKSourceConfig)
    SysTick_Handler                          0x08002c0d   Thumb Code     2  stm32f10x_it.o(i.SysTick_Handler)
    SystemInit                               0x08002c11   Thumb Code    78  system_stm32f10x.o(i.SystemInit)
    USART1_IRQHandler                        0x08002c71   Thumb Code    88  usart.o(i.USART1_IRQHandler)
    USART_Cmd                                0x08002cd9   Thumb Code    24  stm32f10x_usart.o(i.USART_Cmd)
    USART_GetITStatus                        0x08002cf1   Thumb Code    84  stm32f10x_usart.o(i.USART_GetITStatus)
    USART_ITConfig                           0x08002d45   Thumb Code    74  stm32f10x_usart.o(i.USART_ITConfig)
    USART_Init                               0x08002d91   Thumb Code   210  stm32f10x_usart.o(i.USART_Init)
    USART_ReceiveData                        0x08002e69   Thumb Code    10  stm32f10x_usart.o(i.USART_ReceiveData)
    UsageFault_Handler                       0x08002e73   Thumb Code     4  stm32f10x_it.o(i.UsageFault_Handler)
    _is_digit                                0x08002e77   Thumb Code    14  __printf_wp.o(i._is_digit)
    _sys_exit                                0x08002e85   Thumb Code     4  usart.o(i._sys_exit)
    audio_player_find_first_mp3              0x08003291   Thumb Code   184  audio_player.o(i.audio_player_find_first_mp3)
    audio_player_get_stats                   0x080033cd   Thumb Code     4  audio_player.o(i.audio_player_get_stats)
    audio_player_init                        0x08003435   Thumb Code   102  audio_player.o(i.audio_player_init)
    audio_player_last_error                  0x080034d5   Thumb Code     4  audio_player.o(i.audio_player_last_error)
    audio_player_play_from_sd                0x080034f5   Thumb Code    66  audio_player.o(i.audio_player_play_from_sd)
    audio_player_play_mp3_from_sd            0x08003589   Thumb Code   408  audio_player.o(i.audio_player_play_mp3_from_sd)
    audio_player_set_debug                   0x0800389d   Thumb Code    10  audio_player.o(i.audio_player_set_debug)
    audio_record_demo_once                   0x080038d5   Thumb Code   124  audio_record.o(i.audio_record_demo_once)
    audio_record_get_debug_info              0x08003959   Thumb Code     4  audio_record.o(i.audio_record_get_debug_info)
    board_audio_amp_set                      0x08003961   Thumb Code    34  board_audio.o(i.board_audio_amp_set)
    board_audio_capture_pcm                  0x08003a59   Thumb Code   118  board_audio.o(i.board_audio_capture_pcm)
    board_audio_get_debug_info               0x08003d01   Thumb Code     4  board_audio.o(i.board_audio_get_debug_info)
    board_audio_init                         0x08003ea5   Thumb Code     8  board_audio.o(i.board_audio_init)
    board_audio_init_playback                0x08003ead   Thumb Code    68  board_audio.o(i.board_audio_init_playback)
    board_audio_init_record                  0x08003ef5   Thumb Code    68  board_audio.o(i.board_audio_init_record)
    board_audio_play_pcm                     0x08003f3d   Thumb Code   174  board_audio.o(i.board_audio_play_pcm)
    board_audio_play_test_tone               0x08003ff9   Thumb Code    90  board_audio.o(i.board_audio_play_test_tone)
    board_audio_set_sample_rate              0x080040a5   Thumb Code    26  board_audio.o(i.board_audio_set_sample_rate)
    delay_Init                               0x0800425d   Thumb Code    12  delay.o(i.delay_Init)
    delay_ms                                 0x08004269   Thumb Code    72  delay.o(i.delay_ms)
    disk_initialize                          0x0800445d   Thumb Code    26  diskio.o(i.disk_initialize)
    disk_readp                               0x08004479   Thumb Code    74  diskio.o(i.disk_readp)
    fputc                                    0x08004731   Thumb Code    24  usart.o(i.fputc)
    main                                     0x08004b89   Thumb Code   266  main.o(i.main)
    mp3dec_decode_frame                      0x08005f2d   Thumb Code   792  minimp3_adapter.o(i.mp3dec_decode_frame)
    mp3dec_init                              0x08006245   Thumb Code    10  minimp3_adapter.o(i.mp3dec_init)
    pf_mount                                 0x08006251   Thumb Code   338  pff.o(i.pf_mount)
    pf_open                                  0x080063a9   Thumb Code    92  pff.o(i.pf_open)
    pf_opendir                               0x08006409   Thumb Code    80  pff.o(i.pf_opendir)
    pf_read                                  0x0800645d   Thumb Code   232  pff.o(i.pf_read)
    pf_readdir                               0x08006549   Thumb Code    82  pff.o(i.pf_readdir)
    sdcard_stub_init                         0x08006fd9   Thumb Code   280  sdcard_stub.o(i.sdcard_stub_init)
    sdcard_stub_is_ready                     0x080071d1   Thumb Code     6  sdcard_stub.o(i.sdcard_stub_is_ready)
    sdcard_stub_last_error_string            0x080071dd   Thumb Code     6  sdcard_stub.o(i.sdcard_stub_last_error_string)
    sdcard_stub_read_sector                  0x080071e9   Thumb Code   234  sdcard_stub.o(i.sdcard_stub_read_sector)
    sdcard_stub_set_debug                    0x080072fd   Thumb Code    10  sdcard_stub.o(i.sdcard_stub_set_debug)
    __fpl_dcmp_Inf                           0x08007311   Thumb Code    24  dcmpi.o(x$fpl$dcmpinf)
    __aeabi_cdcmple                          0x08007329   Thumb Code     0  dleqf.o(x$fpl$dleqf)
    _dcmple                                  0x08007329   Thumb Code   120  dleqf.o(x$fpl$dleqf)
    __fpl_dcmple_InfNaN                      0x0800738b   Thumb Code     0  dleqf.o(x$fpl$dleqf)
    __fpl_dnaninf                            0x080073a1   Thumb Code   156  dnaninf.o(x$fpl$dnaninf)
    __fpl_dretinf                            0x0800743d   Thumb Code    12  dretinf.o(x$fpl$dretinf)
    __aeabi_cdrcmple                         0x08007449   Thumb Code     0  drleqf.o(x$fpl$drleqf)
    _drcmple                                 0x08007449   Thumb Code   108  drleqf.o(x$fpl$drleqf)
    __aeabi_f2d                              0x080074b5   Thumb Code     0  f2d.o(x$fpl$f2d)
    _f2d                                     0x080074b5   Thumb Code    86  f2d.o(x$fpl$f2d)
    __aeabi_fadd                             0x0800750d   Thumb Code     0  faddsub_clz.o(x$fpl$fadd)
    _fadd                                    0x0800750d   Thumb Code   196  faddsub_clz.o(x$fpl$fadd)
    __fpl_fcmp_Inf                           0x080075d1   Thumb Code    24  fcmpi.o(x$fpl$fcmpinf)
    __aeabi_fdiv                             0x080075e9   Thumb Code     0  fdiv.o(x$fpl$fdiv)
    _fdiv                                    0x080075e9   Thumb Code   384  fdiv.o(x$fpl$fdiv)
    __aeabi_cfcmpeq                          0x0800776d   Thumb Code     0  feqf.o(x$fpl$feqf)
    _fcmpeq                                  0x0800776d   Thumb Code   104  feqf.o(x$fpl$feqf)
    __aeabi_f2iz                             0x080077d5   Thumb Code     0  ffix.o(x$fpl$ffix)
    _ffix                                    0x080077d5   Thumb Code    54  ffix.o(x$fpl$ffix)
    __aeabi_i2f                              0x0800780d   Thumb Code     0  fflt_clz.o(x$fpl$fflt)
    _fflt                                    0x0800780d   Thumb Code    48  fflt_clz.o(x$fpl$fflt)
    __aeabi_fmul                             0x0800783d   Thumb Code     0  fmul.o(x$fpl$fmul)
    _fmul                                    0x0800783d   Thumb Code   258  fmul.o(x$fpl$fmul)
    __fpl_fnaninf                            0x0800793f   Thumb Code   140  fnaninf.o(x$fpl$fnaninf)
    __fpl_fretinf                            0x080079cb   Thumb Code    10  fretinf.o(x$fpl$fretinf)
    __aeabi_frsub                            0x080079d5   Thumb Code     0  faddsub_clz.o(x$fpl$frsb)
    _frsb                                    0x080079d5   Thumb Code    20  faddsub_clz.o(x$fpl$frsb)
    __aeabi_fsub                             0x080079e9   Thumb Code     0  faddsub_clz.o(x$fpl$fsub)
    _fsub                                    0x080079e9   Thumb Code   234  faddsub_clz.o(x$fpl$fsub)
    __I$use$fp                               0x08007ad2   Number         0  usenofp.o(x$fpl$usenofp)
    Region$$Table$$Base                      0x08009ff0   Number         0  anon$$obj.o(Region$$Table)
    Region$$Table$$Limit                     0x0800a010   Number         0  anon$$obj.o(Region$$Table)
    LED2_BitVal                              0x20000000   Data           1  exti.o(.data)
    U1Rx_LEN                                 0x20000004   Data           1  usart.o(.data)
    U1Rx_IDLE_FLAG                           0x20000005   Data           1  usart.o(.data)
    __stdout                                 0x20000008   Data           4  usart.o(.data)
    U1Rx_Data                                0x2000006c   Data         128  usart.o(.bss)
    __libspace_start                         0x20008478   Data          96  libspace.o(.bss)
    __temporary_stack_top$libspace           0x200084d8   Data           0  libspace.o(.bss)



==============================================================================

Memory Map of the image

  Image Entry point : 0x08000131

  Load Region LR_IROM1 (Base: 0x08000000, Size: 0x0000a07c, Max: 0x00080000, ABSOLUTE)

    Execution Region ER_IROM1 (Exec base: 0x08000000, Load base: 0x08000000, Size: 0x0000a010, Max: 0x00080000, ABSOLUTE)

    Exec Addr    Load Addr    Size         Type   Attr      Idx    E Section Name        Object

    0x08000000   0x08000000   0x00000130   Data   RO           19    RESET               startup_stm32f10x_hd.o
    0x08000130   0x08000130   0x00000008   Code   RO         4372  * !!!main             c_w.l(__main.o)
    0x08000138   0x08000138   0x00000034   Code   RO         4591    !!!scatter          c_w.l(__scatter.o)
    0x0800016c   0x0800016c   0x0000001a   Code   RO         4593    !!handler_copy      c_w.l(__scatter_copy.o)
    0x08000186   0x08000186   0x00000002   PAD
    0x08000188   0x08000188   0x0000001c   Code   RO         4595    !!handler_zi        c_w.l(__scatter_zi.o)
    0x080001a4   0x080001a4   0x00000000   Code   RO         4357    .ARM.Collect$$_printf_percent$$00000000  c_w.l(_printf_percent.o)
    0x080001a4   0x080001a4   0x00000006   Code   RO         4355    .ARM.Collect$$_printf_percent$$00000009  c_w.l(_printf_d.o)
    0x080001aa   0x080001aa   0x00000006   Code   RO         4356    .ARM.Collect$$_printf_percent$$0000000A  c_w.l(_printf_u.o)
    0x080001b0   0x080001b0   0x00000006   Code   RO         4354    .ARM.Collect$$_printf_percent$$0000000C  c_w.l(_printf_x.o)
    0x080001b6   0x080001b6   0x00000006   Code   RO         4353    .ARM.Collect$$_printf_percent$$00000014  c_w.l(_printf_s.o)
    0x080001bc   0x080001bc   0x00000004   Code   RO         4417    .ARM.Collect$$_printf_percent$$00000017  c_w.l(_printf_percent_end.o)
    0x080001c0   0x080001c0   0x00000002   Code   RO         4463    .ARM.Collect$$libinit$$00000000  c_w.l(libinit.o)
    0x080001c2   0x080001c2   0x00000000   Code   RO         4470    .ARM.Collect$$libinit$$00000002  c_w.l(libinit2.o)
    0x080001c2   0x080001c2   0x00000000   Code   RO         4472    .ARM.Collect$$libinit$$00000004  c_w.l(libinit2.o)
    0x080001c2   0x080001c2   0x00000000   Code   RO         4475    .ARM.Collect$$libinit$$0000000A  c_w.l(libinit2.o)
    0x080001c2   0x080001c2   0x00000000   Code   RO         4477    .ARM.Collect$$libinit$$0000000C  c_w.l(libinit2.o)
    0x080001c2   0x080001c2   0x00000000   Code   RO         4479    .ARM.Collect$$libinit$$0000000E  c_w.l(libinit2.o)
    0x080001c2   0x080001c2   0x00000000   Code   RO         4482    .ARM.Collect$$libinit$$00000011  c_w.l(libinit2.o)
    0x080001c2   0x080001c2   0x00000000   Code   RO         4484    .ARM.Collect$$libinit$$00000013  c_w.l(libinit2.o)
    0x080001c2   0x080001c2   0x00000000   Code   RO         4486    .ARM.Collect$$libinit$$00000015  c_w.l(libinit2.o)
    0x080001c2   0x080001c2   0x00000000   Code   RO         4488    .ARM.Collect$$libinit$$00000017  c_w.l(libinit2.o)
    0x080001c2   0x080001c2   0x00000000   Code   RO         4490    .ARM.Collect$$libinit$$00000019  c_w.l(libinit2.o)
    0x080001c2   0x080001c2   0x00000000   Code   RO         4492    .ARM.Collect$$libinit$$0000001B  c_w.l(libinit2.o)
    0x080001c2   0x080001c2   0x00000000   Code   RO         4494    .ARM.Collect$$libinit$$0000001D  c_w.l(libinit2.o)
    0x080001c2   0x080001c2   0x00000000   Code   RO         4496    .ARM.Collect$$libinit$$0000001F  c_w.l(libinit2.o)
    0x080001c2   0x080001c2   0x00000000   Code   RO         4498    .ARM.Collect$$libinit$$00000021  c_w.l(libinit2.o)
    0x080001c2   0x080001c2   0x00000000   Code   RO         4500    .ARM.Collect$$libinit$$00000023  c_w.l(libinit2.o)
    0x080001c2   0x080001c2   0x00000000   Code   RO         4502    .ARM.Collect$$libinit$$00000025  c_w.l(libinit2.o)
    0x080001c2   0x080001c2   0x00000000   Code   RO         4506    .ARM.Collect$$libinit$$0000002C  c_w.l(libinit2.o)
    0x080001c2   0x080001c2   0x00000000   Code   RO         4508    .ARM.Collect$$libinit$$0000002E  c_w.l(libinit2.o)
    0x080001c2   0x080001c2   0x00000000   Code   RO         4510    .ARM.Collect$$libinit$$00000030  c_w.l(libinit2.o)
    0x080001c2   0x080001c2   0x00000000   Code   RO         4512    .ARM.Collect$$libinit$$00000032  c_w.l(libinit2.o)
    0x080001c2   0x080001c2   0x00000002   Code   RO         4513    .ARM.Collect$$libinit$$00000033  c_w.l(libinit2.o)
    0x080001c4   0x080001c4   0x00000002   Code   RO         4531    .ARM.Collect$$libshutdown$$00000000  c_w.l(libshutdown.o)
    0x080001c6   0x080001c6   0x00000000   Code   RO         4541    .ARM.Collect$$libshutdown$$00000002  c_w.l(libshutdown2.o)
    0x080001c6   0x080001c6   0x00000000   Code   RO         4543    .ARM.Collect$$libshutdown$$00000004  c_w.l(libshutdown2.o)
    0x080001c6   0x080001c6   0x00000000   Code   RO         4545    .ARM.Collect$$libshutdown$$00000006  c_w.l(libshutdown2.o)
    0x080001c6   0x080001c6   0x00000000   Code   RO         4548    .ARM.Collect$$libshutdown$$00000009  c_w.l(libshutdown2.o)
    0x080001c6   0x080001c6   0x00000000   Code   RO         4551    .ARM.Collect$$libshutdown$$0000000C  c_w.l(libshutdown2.o)
    0x080001c6   0x080001c6   0x00000000   Code   RO         4553    .ARM.Collect$$libshutdown$$0000000E  c_w.l(libshutdown2.o)
    0x080001c6   0x080001c6   0x00000000   Code   RO         4556    .ARM.Collect$$libshutdown$$00000011  c_w.l(libshutdown2.o)
    0x080001c6   0x080001c6   0x00000002   Code   RO         4557    .ARM.Collect$$libshutdown$$00000012  c_w.l(libshutdown2.o)
    0x080001c8   0x080001c8   0x00000000   Code   RO         4406    .ARM.Collect$$rtentry$$00000000  c_w.l(__rtentry.o)
    0x080001c8   0x080001c8   0x00000000   Code   RO         4434    .ARM.Collect$$rtentry$$00000002  c_w.l(__rtentry2.o)
    0x080001c8   0x080001c8   0x00000006   Code   RO         4446    .ARM.Collect$$rtentry$$00000004  c_w.l(__rtentry4.o)
    0x080001ce   0x080001ce   0x00000000   Code   RO         4436    .ARM.Collect$$rtentry$$00000009  c_w.l(__rtentry2.o)
    0x080001ce   0x080001ce   0x00000004   Code   RO         4437    .ARM.Collect$$rtentry$$0000000A  c_w.l(__rtentry2.o)
    0x080001d2   0x080001d2   0x00000000   Code   RO         4439    .ARM.Collect$$rtentry$$0000000C  c_w.l(__rtentry2.o)
    0x080001d2   0x080001d2   0x00000008   Code   RO         4440    .ARM.Collect$$rtentry$$0000000D  c_w.l(__rtentry2.o)
    0x080001da   0x080001da   0x00000002   Code   RO         4467    .ARM.Collect$$rtexit$$00000000  c_w.l(rtexit.o)
    0x080001dc   0x080001dc   0x00000000   Code   RO         4515    .ARM.Collect$$rtexit$$00000002  c_w.l(rtexit2.o)
    0x080001dc   0x080001dc   0x00000004   Code   RO         4516    .ARM.Collect$$rtexit$$00000003  c_w.l(rtexit2.o)
    0x080001e0   0x080001e0   0x00000006   Code   RO         4517    .ARM.Collect$$rtexit$$00000004  c_w.l(rtexit2.o)
    0x080001e6   0x080001e6   0x00000002   PAD
    0x080001e8   0x080001e8   0x00000040   Code   RO           20    .text               startup_stm32f10x_hd.o
    0x08000228   0x08000228   0x00000002   Code   RO         4294    .text               c_w.l(use_no_semi_2.o)
    0x0800022a   0x0800022a   0x00000002   PAD
    0x0800022c   0x0800022c   0x00000018   Code   RO         4300    .text               c_w.l(noretval__2printf.o)
    0x08000244   0x08000244   0x00000028   Code   RO         4302    .text               c_w.l(noretval__2sprintf.o)
    0x0800026c   0x0800026c   0x0000004e   Code   RO         4306    .text               c_w.l(_printf_pad.o)
    0x080002ba   0x080002ba   0x00000052   Code   RO         4308    .text               c_w.l(_printf_str.o)
    0x0800030c   0x0800030c   0x00000078   Code   RO         4310    .text               c_w.l(_printf_dec.o)
    0x08000384   0x08000384   0x00000058   Code   RO         4315    .text               c_w.l(_printf_hex_int.o)
    0x080003dc   0x080003dc   0x00000188   Code   RO         4350    .text               c_w.l(__printf_flags_ss_wp.o)
    0x08000564   0x08000564   0x00000058   Code   RO         4358    .text               c_w.l(memcmp.o)
    0x080005bc   0x080005bc   0x0000008a   Code   RO         4360    .text               c_w.l(rt_memcpy_v6.o)
    0x08000646   0x08000646   0x00000084   Code   RO         4362    .text               c_w.l(rt_memmove_v6.o)
    0x080006ca   0x080006ca   0x00000064   Code   RO         4364    .text               c_w.l(rt_memcpy_w.o)
    0x0800072e   0x0800072e   0x00000044   Code   RO         4366    .text               c_w.l(rt_memclr.o)
    0x08000772   0x08000772   0x0000004e   Code   RO         4368    .text               c_w.l(rt_memclr_w.o)
    0x080007c0   0x080007c0   0x00000006   Code   RO         4370    .text               c_w.l(heapauxi.o)
    0x080007c6   0x080007c6   0x00000002   Code   RO         4404    .text               c_w.l(use_no_semi.o)
    0x080007c8   0x080007c8   0x000000b2   Code   RO         4407    .text               c_w.l(_printf_intcommon.o)
    0x0800087a   0x0800087a   0x00000002   PAD
    0x0800087c   0x0800087c   0x00000030   Code   RO         4409    .text               c_w.l(_printf_char_common.o)
    0x080008ac   0x080008ac   0x0000000a   Code   RO         4411    .text               c_w.l(_sputc.o)
    0x080008b6   0x080008b6   0x0000002c   Code   RO         4413    .text               c_w.l(_printf_char.o)
    0x080008e2   0x080008e2   0x00000002   PAD
    0x080008e4   0x080008e4   0x00000024   Code   RO         4415    .text               c_w.l(_printf_char_file.o)
    0x08000908   0x08000908   0x0000007a   Code   RO         4418    .text               c_w.l(rt_memmove_w.o)
    0x08000982   0x08000982   0x00000008   Code   RO         4450    .text               c_w.l(ferror.o)
    0x0800098a   0x0800098a   0x0000004a   Code   RO         4454    .text               c_w.l(sys_stackheap_outer.o)
    0x080009d4   0x080009d4   0x00000012   Code   RO         4456    .text               c_w.l(exit.o)
    0x080009e6   0x080009e6   0x00000002   PAD
    0x080009e8   0x080009e8   0x00000008   Code   RO         4464    .text               c_w.l(libspace.o)
    0x080009f0   0x080009f0   0x00000004   Code   RO          193    i.BusFault_Handler  stm32f10x_it.o
    0x080009f4   0x080009f4   0x00000002   Code   RO          194    i.DebugMon_Handler  stm32f10x_it.o
    0x080009f6   0x080009f6   0x00000002   PAD
    0x080009f8   0x080009f8   0x00000054   Code   RO           24    i.EXTI1_IRQHandler  exti.o
    0x08000a4c   0x08000a4c   0x0000000c   Code   RO         2123    i.EXTI_ClearITPendingBit  stm32f10x_exti.o
    0x08000a58   0x08000a58   0x00000116   Code   RO         2476    i.GPIO_Init         stm32f10x_gpio.o
    0x08000b6e   0x08000b6e   0x00000002   PAD
    0x08000b70   0x08000b70   0x00000090   Code   RO         2478    i.GPIO_PinRemapConfig  stm32f10x_gpio.o
    0x08000c00   0x08000c00   0x00000012   Code   RO         2480    i.GPIO_ReadInputDataBit  stm32f10x_gpio.o
    0x08000c12   0x08000c12   0x00000012   Code   RO         2482    i.GPIO_ReadOutputDataBit  stm32f10x_gpio.o
    0x08000c24   0x08000c24   0x00000004   Code   RO         2483    i.GPIO_ResetBits    stm32f10x_gpio.o
    0x08000c28   0x08000c28   0x00000004   Code   RO         2484    i.GPIO_SetBits      stm32f10x_gpio.o
    0x08000c2c   0x08000c2c   0x0000000a   Code   RO         2487    i.GPIO_WriteBit     stm32f10x_gpio.o
    0x08000c36   0x08000c36   0x00000004   Code   RO          195    i.HardFault_Handler  stm32f10x_it.o
    0x08000c3a   0x08000c3a   0x00000018   Code   RO         3366    i.I2S_Cmd           stm32f10x_spi.o
    0x08000c52   0x08000c52   0x00000002   PAD
    0x08000c54   0x08000c54   0x000000e8   Code   RO         3367    i.I2S_Init          stm32f10x_spi.o
    0x08000d3c   0x08000d3c   0x00000080   Code   RO         1076    i.L12_apply_scf_384  minimp3_adapter.o
    0x08000dbc   0x08000dbc   0x000000d8   Code   RO         1077    i.L12_dequantize_granule  minimp3_adapter.o
    0x08000e94   0x08000e94   0x000000f8   Code   RO         1078    i.L12_read_scale_info  minimp3_adapter.o
    0x08000f8c   0x08000f8c   0x0000009c   Code   RO         1079    i.L12_read_scalefactors  minimp3_adapter.o
    0x08001028   0x08001028   0x000000bc   Code   RO         1080    i.L12_subband_alloc_table  minimp3_adapter.o
    0x080010e4   0x080010e4   0x0000008c   Code   RO         1081    i.L3_antialias      minimp3_adapter.o
    0x08001170   0x08001170   0x00000026   Code   RO         1082    i.L3_change_sign    minimp3_adapter.o
    0x08001196   0x08001196   0x00000002   PAD
    0x08001198   0x08001198   0x000001e4   Code   RO         1083    i.L3_dct3_9         minimp3_adapter.o
    0x0800137c   0x0800137c   0x0000017e   Code   RO         1084    i.L3_decode         minimp3_adapter.o
    0x080014fa   0x080014fa   0x00000002   PAD
    0x080014fc   0x080014fc   0x000001e0   Code   RO         1085    i.L3_decode_scalefactors  minimp3_adapter.o
    0x080016dc   0x080016dc   0x0000041c   Code   RO         1086    i.L3_huffman        minimp3_adapter.o
    0x08001af8   0x08001af8   0x00000050   Code   RO         1087    i.L3_idct3          minimp3_adapter.o
    0x08001b48   0x08001b48   0x00000130   Code   RO         1088    i.L3_imdct12        minimp3_adapter.o
    0x08001c78   0x08001c78   0x000001b0   Code   RO         1089    i.L3_imdct36        minimp3_adapter.o
    0x08001e28   0x08001e28   0x00000064   Code   RO         1090    i.L3_imdct_gr       minimp3_adapter.o
    0x08001e8c   0x08001e8c   0x00000056   Code   RO         1091    i.L3_imdct_short    minimp3_adapter.o
    0x08001ee2   0x08001ee2   0x000000b6   Code   RO         1092    i.L3_intensity_stereo  minimp3_adapter.o
    0x08001f98   0x08001f98   0x0000003a   Code   RO         1093    i.L3_intensity_stereo_band  minimp3_adapter.o
    0x08001fd2   0x08001fd2   0x00000002   PAD
    0x08001fd4   0x08001fd4   0x00000050   Code   RO         1094    i.L3_ldexp_q2       minimp3_adapter.o
    0x08002024   0x08002024   0x0000003a   Code   RO         1095    i.L3_midside_stereo  minimp3_adapter.o
    0x0800205e   0x0800205e   0x00000002   PAD
    0x08002060   0x08002060   0x000000a4   Code   RO         1096    i.L3_pow_43         minimp3_adapter.o
    0x08002104   0x08002104   0x000000b8   Code   RO         1097    i.L3_read_scalefactors  minimp3_adapter.o
    0x080021bc   0x080021bc   0x0000024c   Code   RO         1098    i.L3_read_side_info  minimp3_adapter.o
    0x08002408   0x08002408   0x00000058   Code   RO         1099    i.L3_reorder        minimp3_adapter.o
    0x08002460   0x08002460   0x000000b2   Code   RO         1100    i.L3_restore_reservoir  minimp3_adapter.o
    0x08002512   0x08002512   0x00000044   Code   RO         1101    i.L3_save_reservoir  minimp3_adapter.o
    0x08002556   0x08002556   0x00000002   PAD
    0x08002558   0x08002558   0x000000d8   Code   RO         1102    i.L3_stereo_process  minimp3_adapter.o
    0x08002630   0x08002630   0x00000066   Code   RO         1103    i.L3_stereo_top_band  minimp3_adapter.o
    0x08002696   0x08002696   0x00000002   PAD
    0x08002698   0x08002698   0x000000bc   Code   RO          338    i.MX_USART1_Init    usart.o
    0x08002754   0x08002754   0x00000004   Code   RO          196    i.MemManage_Handler  stm32f10x_it.o
    0x08002758   0x08002758   0x00000002   Code   RO          197    i.NMI_Handler       stm32f10x_it.o
    0x0800275a   0x0800275a   0x00000002   PAD
    0x0800275c   0x0800275c   0x00000070   Code   RO         1325    i.NVIC_Init         misc.o
    0x080027cc   0x080027cc   0x00000014   Code   RO         1326    i.NVIC_PriorityGroupConfig  misc.o
    0x080027e0   0x080027e0   0x00000002   Code   RO          198    i.PendSV_Handler    stm32f10x_it.o
    0x080027e2   0x080027e2   0x00000002   PAD
    0x080027e4   0x080027e4   0x00000020   Code   RO         2891    i.RCC_AHBPeriphClockCmd  stm32f10x_rcc.o
    0x08002804   0x08002804   0x00000020   Code   RO         2892    i.RCC_APB1PeriphClockCmd  stm32f10x_rcc.o
    0x08002824   0x08002824   0x00000020   Code   RO         2893    i.RCC_APB1PeriphResetCmd  stm32f10x_rcc.o
    0x08002844   0x08002844   0x00000020   Code   RO         2894    i.RCC_APB2PeriphClockCmd  stm32f10x_rcc.o
    0x08002864   0x08002864   0x00000020   Code   RO         2895    i.RCC_APB2PeriphResetCmd  stm32f10x_rcc.o
    0x08002884   0x08002884   0x000000d4   Code   RO         2902    i.RCC_GetClocksFreq  stm32f10x_rcc.o
    0x08002958   0x08002958   0x0000000c   Code   RO         3181    i.SDIO_ClearFlag    stm32f10x_sdio.o
    0x08002964   0x08002964   0x0000000c   Code   RO         3183    i.SDIO_ClockCmd     stm32f10x_sdio.o
    0x08002970   0x08002970   0x00000030   Code   RO         3187    i.SDIO_DataConfig   stm32f10x_sdio.o
    0x080029a0   0x080029a0   0x00000024   Code   RO         3189    i.SDIO_DeInit       stm32f10x_sdio.o
    0x080029c4   0x080029c4   0x0000000c   Code   RO         3190    i.SDIO_GetCommandResponse  stm32f10x_sdio.o
    0x080029d0   0x080029d0   0x00000018   Code   RO         3193    i.SDIO_GetFlagStatus  stm32f10x_sdio.o
    0x080029e8   0x080029e8   0x00000018   Code   RO         3196    i.SDIO_GetResponse  stm32f10x_sdio.o
    0x08002a00   0x08002a00   0x00000030   Code   RO         3198    i.SDIO_Init         stm32f10x_sdio.o
    0x08002a30   0x08002a30   0x0000000c   Code   RO         3199    i.SDIO_ReadData     stm32f10x_sdio.o
    0x08002a3c   0x08002a3c   0x0000002c   Code   RO         3201    i.SDIO_SendCommand  stm32f10x_sdio.o
    0x08002a68   0x08002a68   0x0000001c   Code   RO         3203    i.SDIO_SetPowerState  stm32f10x_sdio.o
    0x08002a84   0x08002a84   0x00000058   Code   RO         3378    i.SPI_I2S_DeInit    stm32f10x_spi.o
    0x08002adc   0x08002adc   0x00000012   Code   RO         3379    i.SPI_I2S_GetFlagStatus  stm32f10x_spi.o
    0x08002aee   0x08002aee   0x00000006   Code   RO         3382    i.SPI_I2S_ReceiveData  stm32f10x_spi.o
    0x08002af4   0x08002af4   0x00000004   Code   RO         3383    i.SPI_I2S_SendData  stm32f10x_spi.o
    0x08002af8   0x08002af8   0x00000002   Code   RO          199    i.SVC_Handler       stm32f10x_it.o
    0x08002afa   0x08002afa   0x00000008   Code   RO          256    i.SetSysClock       system_stm32f10x.o
    0x08002b02   0x08002b02   0x00000002   PAD
    0x08002b04   0x08002b04   0x000000e0   Code   RO          257    i.SetSysClockTo72   system_stm32f10x.o
    0x08002be4   0x08002be4   0x00000028   Code   RO         1329    i.SysTick_CLKSourceConfig  misc.o
    0x08002c0c   0x08002c0c   0x00000002   Code   RO          200    i.SysTick_Handler   stm32f10x_it.o
    0x08002c0e   0x08002c0e   0x00000002   PAD
    0x08002c10   0x08002c10   0x00000060   Code   RO          259    i.SystemInit        system_stm32f10x.o
    0x08002c70   0x08002c70   0x00000068   Code   RO          339    i.USART1_IRQHandler  usart.o
    0x08002cd8   0x08002cd8   0x00000018   Code   RO         4062    i.USART_Cmd         stm32f10x_usart.o
    0x08002cf0   0x08002cf0   0x00000054   Code   RO         4066    i.USART_GetITStatus  stm32f10x_usart.o
    0x08002d44   0x08002d44   0x0000004a   Code   RO         4068    i.USART_ITConfig    stm32f10x_usart.o
    0x08002d8e   0x08002d8e   0x00000002   PAD
    0x08002d90   0x08002d90   0x000000d8   Code   RO         4069    i.USART_Init        stm32f10x_usart.o
    0x08002e68   0x08002e68   0x0000000a   Code   RO         4076    i.USART_ReceiveData  stm32f10x_usart.o
    0x08002e72   0x08002e72   0x00000004   Code   RO          201    i.UsageFault_Handler  stm32f10x_it.o
    0x08002e76   0x08002e76   0x0000000e   Code   RO         4343    i._is_digit         c_w.l(__printf_wp.o)
    0x08002e84   0x08002e84   0x00000004   Code   RO          340    i._sys_exit         usart.o
    0x08002e88   0x08002e88   0x0000000c   Code   RO          527    i.audio_delay_ms    board_audio.o
    0x08002e94   0x08002e94   0x00000018   Code   RO          528    i.audio_delay_short  board_audio.o
    0x08002eac   0x08002eac   0x0000007c   Code   RO          379    i.audio_player_debug_progress  audio_player.o
    0x08002f28   0x08002f28   0x000001b4   Code   RO          380    i.audio_player_debug_scan_filesystem  audio_player.o
    0x080030dc   0x080030dc   0x000000c4   Code   RO          381    i.audio_player_debug_sector0  audio_player.o
    0x080031a0   0x080031a0   0x000000f0   Code   RO          382    i.audio_player_debug_sector_summary  audio_player.o
    0x08003290   0x08003290   0x0000013c   Code   RO          383    i.audio_player_find_first_mp3  audio_player.o
    0x080033cc   0x080033cc   0x00000008   Code   RO          384    i.audio_player_get_stats  audio_player.o
    0x080033d4   0x080033d4   0x0000005e   Code   RO          385    i.audio_player_has_suffix  audio_player.o
    0x08003432   0x08003432   0x00000002   PAD
    0x08003434   0x08003434   0x000000a0   Code   RO          386    i.audio_player_init  audio_player.o
    0x080034d4   0x080034d4   0x00000008   Code   RO          387    i.audio_player_last_error  audio_player.o
    0x080034dc   0x080034dc   0x00000018   Code   RO          388    i.audio_player_ld_dword  audio_player.o
    0x080034f4   0x080034f4   0x00000094   Code   RO          389    i.audio_player_play_from_sd  audio_player.o
    0x08003588   0x08003588   0x00000254   Code   RO          390    i.audio_player_play_mp3_from_sd  audio_player.o
    0x080037dc   0x080037dc   0x00000010   Code   RO          391    i.audio_player_reset_stats  audio_player.o
    0x080037ec   0x080037ec   0x0000001a   Code   RO          392    i.audio_player_sector_has_aa55  audio_player.o
    0x08003806   0x08003806   0x00000002   PAD
    0x08003808   0x08003808   0x00000024   Code   RO          393    i.audio_player_sector_has_exfat_name  audio_player.o
    0x0800382c   0x0800382c   0x00000034   Code   RO          394    i.audio_player_sector_has_fat_name  audio_player.o
    0x08003860   0x08003860   0x0000003c   Code   RO          395    i.audio_player_sector_interesting  audio_player.o
    0x0800389c   0x0800389c   0x00000014   Code   RO          396    i.audio_player_set_debug  audio_player.o
    0x080038b0   0x080038b0   0x00000024   Code   RO          397    i.audio_player_set_error  audio_player.o
    0x080038d4   0x080038d4   0x00000084   Code   RO          504    i.audio_record_demo_once  audio_record.o
    0x08003958   0x08003958   0x00000008   Code   RO          505    i.audio_record_get_debug_info  audio_record.o
    0x08003960   0x08003960   0x00000028   Code   RO          529    i.board_audio_amp_set  board_audio.o
    0x08003988   0x08003988   0x00000024   Code   RO          531    i.board_audio_apply_gain  board_audio.o
    0x080039ac   0x080039ac   0x000000ac   Code   RO          532    i.board_audio_capture_debug_regs  board_audio.o
    0x08003a58   0x08003a58   0x0000007c   Code   RO          533    i.board_audio_capture_pcm  board_audio.o
    0x08003ad4   0x08003ad4   0x00000130   Code   RO          534    i.board_audio_codec_init_playback  board_audio.o
    0x08003c04   0x08003c04   0x000000fc   Code   RO          535    i.board_audio_codec_init_record  board_audio.o
    0x08003d00   0x08003d00   0x00000008   Code   RO          536    i.board_audio_get_debug_info  board_audio.o
    0x08003d08   0x08003d08   0x000000c8   Code   RO          537    i.board_audio_gpio_init  board_audio.o
    0x08003dd0   0x08003dd0   0x0000001e   Code   RO          538    i.board_audio_i2s_freq  board_audio.o
    0x08003dee   0x08003dee   0x00000002   PAD
    0x08003df0   0x08003df0   0x00000044   Code   RO          539    i.board_audio_i2s_init_rx  board_audio.o
    0x08003e34   0x08003e34   0x0000000c   Code   RO          540    i.board_audio_i2s_init_tx  board_audio.o
    0x08003e40   0x08003e40   0x00000064   Code   RO          541    i.board_audio_i2s_init_tx_rate  board_audio.o
    0x08003ea4   0x08003ea4   0x00000008   Code   RO          542    i.board_audio_init  board_audio.o
    0x08003eac   0x08003eac   0x00000048   Code   RO          543    i.board_audio_init_playback  board_audio.o
    0x08003ef4   0x08003ef4   0x00000048   Code   RO          544    i.board_audio_init_record  board_audio.o
    0x08003f3c   0x08003f3c   0x000000bc   Code   RO          545    i.board_audio_play_pcm  board_audio.o
    0x08003ff8   0x08003ff8   0x00000060   Code   RO          546    i.board_audio_play_test_tone  board_audio.o
    0x08004058   0x08004058   0x00000020   Code   RO          547    i.board_audio_read_word  board_audio.o
    0x08004078   0x08004078   0x00000020   Code   RO          548    i.board_audio_reset_debug  board_audio.o
    0x08004098   0x08004098   0x0000000c   Code   RO          549    i.board_audio_set_error  board_audio.o
    0x080040a4   0x080040a4   0x00000020   Code   RO          550    i.board_audio_set_sample_rate  board_audio.o
    0x080040c4   0x080040c4   0x00000024   Code   RO          551    i.board_audio_write_frame  board_audio.o
    0x080040e8   0x080040e8   0x00000020   Code   RO          552    i.board_audio_write_word  board_audio.o
    0x08004108   0x08004108   0x0000000c   Code   RO         1104    i.bs_init           minimp3_adapter.o
    0x08004114   0x08004114   0x00000070   Code   RO          956    i.check_fs          pff.o
    0x08004184   0x08004184   0x00000024   Code   RO          957    i.clust2sect        pff.o
    0x080041a8   0x080041a8   0x000000a0   Code   RO          958    i.create_name       pff.o
    0x08004248   0x08004248   0x00000014   Code   RO          141    i.debug_print_text  main.o
    0x0800425c   0x0800425c   0x0000000c   Code   RO          290    i.delay_Init        delay.o
    0x08004268   0x08004268   0x00000048   Code   RO          291    i.delay_ms          delay.o
    0x080042b0   0x080042b0   0x00000078   Code   RO          959    i.dir_find          pff.o
    0x08004328   0x08004328   0x0000007c   Code   RO          960    i.dir_next          pff.o
    0x080043a4   0x080043a4   0x00000076   Code   RO          961    i.dir_read          pff.o
    0x0800441a   0x0800441a   0x00000002   PAD
    0x0800441c   0x0800441c   0x00000040   Code   RO          962    i.dir_rewind        pff.o
    0x0800445c   0x0800445c   0x0000001a   Code   RO          922    i.disk_initialize   diskio.o
    0x08004476   0x08004476   0x00000002   PAD
    0x08004478   0x08004478   0x00000050   Code   RO          923    i.disk_readp        diskio.o
    0x080044c8   0x080044c8   0x00000060   Code   RO          142    i.dump_board_audio_debug  main.o
    0x08004528   0x08004528   0x00000028   Code   RO          143    i.dump_player_stats  main.o
    0x08004550   0x08004550   0x00000054   Code   RO          144    i.dump_record_debug  main.o
    0x080045a4   0x080045a4   0x00000050   Code   RO          553    i.es8311_probe      board_audio.o
    0x080045f4   0x080045f4   0x00000014   Code   RO          554    i.es8311_probe_addr  board_audio.o
    0x08004608   0x08004608   0x00000050   Code   RO          555    i.es8311_read_reg   board_audio.o
    0x08004658   0x08004658   0x00000028   Code   RO          556    i.es8311_write_reg  board_audio.o
    0x08004680   0x08004680   0x00000030   Code   RO          557    i.es8311_write_reg_to  board_audio.o
    0x080046b0   0x080046b0   0x00000080   Code   RO          963    i.follow_path       pff.o
    0x08004730   0x08004730   0x0000001c   Code   RO          341    i.fputc             usart.o
    0x0800474c   0x0800474c   0x0000005a   Code   RO         1105    i.get_bits          minimp3_adapter.o
    0x080047a6   0x080047a6   0x00000002   PAD
    0x080047a8   0x080047a8   0x00000030   Code   RO          964    i.get_clust         pff.o
    0x080047d8   0x080047d8   0x0000006c   Code   RO          965    i.get_fat           pff.o
    0x08004844   0x08004844   0x00000092   Code   RO          966    i.get_fileinfo      pff.o
    0x080048d6   0x080048d6   0x00000002   PAD
    0x080048d8   0x080048d8   0x00000034   Code   RO         1106    i.hdr_bitrate_kbps  minimp3_adapter.o
    0x0800490c   0x0800490c   0x0000004e   Code   RO         1107    i.hdr_compare       minimp3_adapter.o
    0x0800495a   0x0800495a   0x00000044   Code   RO         1108    i.hdr_frame_bytes   minimp3_adapter.o
    0x0800499e   0x0800499e   0x00000028   Code   RO         1109    i.hdr_frame_samples  minimp3_adapter.o
    0x080049c6   0x080049c6   0x00000020   Code   RO         1110    i.hdr_padding       minimp3_adapter.o
    0x080049e6   0x080049e6   0x00000002   PAD
    0x080049e8   0x080049e8   0x00000028   Code   RO         1111    i.hdr_sample_rate_hz  minimp3_adapter.o
    0x08004a10   0x08004a10   0x00000040   Code   RO         1112    i.hdr_valid         minimp3_adapter.o
    0x08004a50   0x08004a50   0x00000046   Code   RO          558    i.i2c_read_byte     board_audio.o
    0x08004a96   0x08004a96   0x00000002   PAD
    0x08004a98   0x08004a98   0x00000014   Code   RO          559    i.i2c_scl_high      board_audio.o
    0x08004aac   0x08004aac   0x00000014   Code   RO          560    i.i2c_scl_low       board_audio.o
    0x08004ac0   0x08004ac0   0x00000014   Code   RO          561    i.i2c_sda_high      board_audio.o
    0x08004ad4   0x08004ad4   0x00000014   Code   RO          562    i.i2c_sda_low       board_audio.o
    0x08004ae8   0x08004ae8   0x00000010   Code   RO          563    i.i2c_sda_read      board_audio.o
    0x08004af8   0x08004af8   0x00000014   Code   RO          564    i.i2c_start         board_audio.o
    0x08004b0c   0x08004b0c   0x00000010   Code   RO          565    i.i2c_stop          board_audio.o
    0x08004b1c   0x08004b1c   0x00000048   Code   RO          566    i.i2c_write_byte    board_audio.o
    0x08004b64   0x08004b64   0x00000018   Code   RO          967    i.ld_dword          pff.o
    0x08004b7c   0x08004b7c   0x0000000c   Code   RO          968    i.ld_word           pff.o
    0x08004b88   0x08004b88   0x000002e4   Code   RO          145    i.main              main.o
    0x08004e6c   0x08004e6c   0x00000026   Code   RO          969    i.mem_cmp           pff.o
    0x08004e92   0x08004e92   0x00000014   Code   RO          970    i.mem_set           pff.o
    0x08004ea6   0x08004ea6   0x00000002   PAD
    0x08004ea8   0x08004ea8   0x0000036c   Code   RO         1113    i.mp3d_DCT_II       minimp3_adapter.o
    0x08005214   0x08005214   0x000000de   Code   RO         1114    i.mp3d_find_frame   minimp3_adapter.o
    0x080052f2   0x080052f2   0x00000050   Code   RO         1115    i.mp3d_match_frame  minimp3_adapter.o
    0x08005342   0x08005342   0x00000002   PAD
    0x08005344   0x08005344   0x00000060   Code   RO         1116    i.mp3d_scale_pcm    minimp3_adapter.o
    0x080053a4   0x080053a4   0x0000092c   Code   RO         1117    i.mp3d_synth        minimp3_adapter.o
    0x08005cd0   0x08005cd0   0x00000084   Code   RO         1118    i.mp3d_synth_granule  minimp3_adapter.o
    0x08005d54   0x08005d54   0x000001d8   Code   RO         1119    i.mp3d_synth_pair   minimp3_adapter.o
    0x08005f2c   0x08005f2c   0x00000318   Code   RO         1120    i.mp3dec_decode_frame  minimp3_adapter.o
    0x08006244   0x08006244   0x0000000a   Code   RO         1121    i.mp3dec_init       minimp3_adapter.o
    0x0800624e   0x0800624e   0x00000002   PAD
    0x08006250   0x08006250   0x00000158   Code   RO          971    i.pf_mount          pff.o
    0x080063a8   0x080063a8   0x00000060   Code   RO          972    i.pf_open           pff.o
    0x08006408   0x08006408   0x00000054   Code   RO          973    i.pf_opendir        pff.o
    0x0800645c   0x0800645c   0x000000ec   Code   RO          974    i.pf_read           pff.o
    0x08006548   0x08006548   0x00000058   Code   RO          975    i.pf_readdir        pff.o
    0x080065a0   0x080065a0   0x000000c0   Code   RO          757    i.sd_acmd41_init    sdcard_stub.o
    0x08006660   0x08006660   0x0000003c   Code   RO          758    i.sd_clear_data_path  sdcard_stub.o
    0x0800669c   0x0800669c   0x00000012   Code   RO          759    i.sd_cmd0           sdcard_stub.o
    0x080066ae   0x080066ae   0x00000018   Code   RO          760    i.sd_cmd2           sdcard_stub.o
    0x080066c6   0x080066c6   0x00000002   PAD
    0x080066c8   0x080066c8   0x00000068   Code   RO          761    i.sd_cmd8           sdcard_stub.o
    0x08006730   0x08006730   0x00000098   Code   RO          762    i.sd_debug_dump_probe  sdcard_stub.o
    0x080067c8   0x080067c8   0x00000064   Code   RO          763    i.sd_debug_dump_regs  sdcard_stub.o
    0x0800682c   0x0800682c   0x000000b4   Code   RO          764    i.sd_debug_dump_sector_prefix  sdcard_stub.o
    0x080068e0   0x080068e0   0x00000024   Code   RO          765    i.sd_debug_print    sdcard_stub.o
    0x08006904   0x08006904   0x0000009c   Code   RO          766    i.sd_debug_probe_addresses  sdcard_stub.o
    0x080069a0   0x080069a0   0x00000094   Code   RO          767    i.sd_debug_sector0  sdcard_stub.o
    0x08006a34   0x08006a34   0x000000a0   Code   RO          768    i.sd_debug_step     sdcard_stub.o
    0x08006ad4   0x08006ad4   0x00000012   Code   RO          769    i.sd_delay          sdcard_stub.o
    0x08006ae6   0x08006ae6   0x00000002   PAD
    0x08006ae8   0x08006ae8   0x00000058   Code   RO          770    i.sd_get_rca        sdcard_stub.o
    0x08006b40   0x08006b40   0x0000004c   Code   RO          771    i.sd_gpio_init      sdcard_stub.o
    0x08006b8c   0x08006b8c   0x00000018   Code   RO          772    i.sd_ld_dword       sdcard_stub.o
    0x08006ba4   0x08006ba4   0x00000108   Code   RO          773    i.sd_read_data_polling  sdcard_stub.o
    0x08006cac   0x08006cac   0x0000006a   Code   RO          774    i.sd_read_raw_address_debug  sdcard_stub.o
    0x08006d16   0x08006d16   0x00000002   PAD
    0x08006d18   0x08006d18   0x00000038   Code   RO          775    i.sd_sdio_clock_config  sdcard_stub.o
    0x08006d50   0x08006d50   0x00000020   Code   RO          776    i.sd_select_card    sdcard_stub.o
    0x08006d70   0x08006d70   0x00000044   Code   RO          777    i.sd_send_command   sdcard_stub.o
    0x08006db4   0x08006db4   0x00000028   Code   RO          778    i.sd_set_block_length  sdcard_stub.o
    0x08006ddc   0x08006ddc   0x00000038   Code   RO          779    i.sd_set_bus_width_4bit  sdcard_stub.o
    0x08006e14   0x08006e14   0x00000094   Code   RO          780    i.sd_wait_cmd_no_response  sdcard_stub.o
    0x08006ea8   0x08006ea8   0x00000130   Code   RO          781    i.sd_wait_cmd_response  sdcard_stub.o
    0x08006fd8   0x08006fd8   0x000001f8   Code   RO          782    i.sdcard_stub_init  sdcard_stub.o
    0x080071d0   0x080071d0   0x0000000c   Code   RO          783    i.sdcard_stub_is_ready  sdcard_stub.o
    0x080071dc   0x080071dc   0x0000000c   Code   RO          784    i.sdcard_stub_last_error_string  sdcard_stub.o
    0x080071e8   0x080071e8   0x00000114   Code   RO          785    i.sdcard_stub_read_sector  sdcard_stub.o
    0x080072fc   0x080072fc   0x00000014   Code   RO          786    i.sdcard_stub_set_debug  sdcard_stub.o
    0x08007310   0x08007310   0x00000018   Code   RO         4420    x$fpl$dcmpinf       fz_ws.l(dcmpi.o)
    0x08007328   0x08007328   0x00000078   Code   RO         4374    x$fpl$dleqf         fz_ws.l(dleqf.o)
    0x080073a0   0x080073a0   0x0000009c   Code   RO         4422    x$fpl$dnaninf       fz_ws.l(dnaninf.o)
    0x0800743c   0x0800743c   0x0000000c   Code   RO         4424    x$fpl$dretinf       fz_ws.l(dretinf.o)
    0x08007448   0x08007448   0x0000006c   Code   RO         4376    x$fpl$drleqf        fz_ws.l(drleqf.o)
    0x080074b4   0x080074b4   0x00000056   Code   RO         4378    x$fpl$f2d           fz_ws.l(f2d.o)
    0x0800750a   0x0800750a   0x00000002   PAD
    0x0800750c   0x0800750c   0x000000c4   Code   RO         4380    x$fpl$fadd          fz_ws.l(faddsub_clz.o)
    0x080075d0   0x080075d0   0x00000018   Code   RO         4426    x$fpl$fcmpinf       fz_ws.l(fcmpi.o)
    0x080075e8   0x080075e8   0x00000184   Code   RO         4387    x$fpl$fdiv          fz_ws.l(fdiv.o)
    0x0800776c   0x0800776c   0x00000068   Code   RO         4390    x$fpl$feqf          fz_ws.l(feqf.o)
    0x080077d4   0x080077d4   0x00000036   Code   RO         4392    x$fpl$ffix          fz_ws.l(ffix.o)
    0x0800780a   0x0800780a   0x00000002   PAD
    0x0800780c   0x0800780c   0x00000030   Code   RO         4397    x$fpl$fflt          fz_ws.l(fflt_clz.o)
    0x0800783c   0x0800783c   0x00000102   Code   RO         4402    x$fpl$fmul          fz_ws.l(fmul.o)
    0x0800793e   0x0800793e   0x0000008c   Code   RO         4428    x$fpl$fnaninf       fz_ws.l(fnaninf.o)
    0x080079ca   0x080079ca   0x0000000a   Code   RO         4430    x$fpl$fretinf       fz_ws.l(fretinf.o)
    0x080079d4   0x080079d4   0x00000014   Code   RO         4381    x$fpl$frsb          fz_ws.l(faddsub_clz.o)
    0x080079e8   0x080079e8   0x000000ea   Code   RO         4382    x$fpl$fsub          fz_ws.l(faddsub_clz.o)
    0x08007ad2   0x08007ad2   0x00000000   Code   RO         4432    x$fpl$usenofp       fz_ws.l(usenofp.o)
    0x08007ad2   0x08007ad2   0x00000002   PAD
    0x08007ad4   0x08007ad4   0x00000030   Data   RO          399    .constdata          audio_player.o
    0x08007b04   0x08007b04   0x00000060   Data   RO          568    .constdata          board_audio.o
    0x08007b64   0x08007b64   0x00000080   Data   RO          976    .constdata          pff.o
    0x08007be4   0x08007be4   0x00001ecc   Data   RO         1122    .constdata          minimp3_adapter.o
    0x08009ab0   0x08009ab0   0x00000028   Data   RO         4316    .constdata          c_w.l(_printf_hex_int.o)
    0x08009ad8   0x08009ad8   0x00000011   Data   RO         4351    .constdata          c_w.l(__printf_flags_ss_wp.o)
    0x08009ae9   0x08009ae9   0x00000003   PAD
    0x08009aec   0x08009aec   0x0000019b   Data   RO          146    .conststring        main.o
    0x08009c87   0x08009c87   0x00000001   PAD
    0x08009c88   0x08009c88   0x000000f1   Data   RO          400    .conststring        audio_player.o
    0x08009d79   0x08009d79   0x00000003   PAD
    0x08009d7c   0x08009d7c   0x00000274   Data   RO          788    .conststring        sdcard_stub.o
    0x08009ff0   0x08009ff0   0x00000020   Data   RO         4589    Region$$Table       anon$$obj.o


    Execution Region RW_IRAM1 (Exec base: 0x20000000, Load base: 0x0800a010, Size: 0x000096d8, Max: 0x00010000, ABSOLUTE)

    Exec Addr    Load Addr    Size         Type   Attr      Idx    E Section Name        Object

    0x20000000   0x0800a010   0x00000001   Data   RW           26    .data               exti.o
    0x20000001   0x0800a011   0x00000003   PAD
    0x20000004   0x0800a014   0x00000008   Data   RW          343    .data               usart.o
    0x2000000c   0x0800a01c   0x0000000c   Data   RW          401    .data               audio_player.o
    0x20000018   0x0800a028   0x00000001   Data   RW          569    .data               board_audio.o
    0x20000019   0x0800a029   0x00000003   PAD
    0x2000001c   0x0800a02c   0x00000038   Data   RW          789    .data               sdcard_stub.o
    0x20000054   0x0800a064   0x00000004   Data   RW          977    .data               pff.o
    0x20000058   0x0800a068   0x00000014   Data   RW         2922    .data               stm32f10x_rcc.o
    0x2000006c        -       0x00000080   Zero   RW          342    .bss                usart.o
    0x200000ec        -       0x000040b4   Zero   RW          398    .bss                audio_player.o
    0x200041a0        -       0x00003e90   Zero   RW          506    .bss                audio_record.o
    0x20008030        -       0x00000048   Zero   RW          567    .bss                board_audio.o
    0x20008078        -       0x00000200   Zero   RW          787    .bss                sdcard_stub.o
    0x20008278        -       0x00000200   Zero   RW          925    .bss                diskio.o
    0x20008478        -       0x00000060   Zero   RW         4465    .bss                c_w.l(libspace.o)
    0x200084d8        -       0x00000200   Zero   RW           18    HEAP                startup_stm32f10x_hd.o
    0x200086d8        -       0x00001000   Zero   RW           17    STACK               startup_stm32f10x_hd.o


==============================================================================

Image component sizes


      Code (inc. data)   RO Data    RW Data    ZI Data      Debug   Object Name

      2596        928        289         12      16564      15530   audio_player.o
       140         12          0          0      16016       1807   audio_record.o
      2536        178         96          1         72      22836   board_audio.o
         0          0          0          0          0       4540   core_cm3.o
        84          0          0          0          0        956   delay.o
       106          6          0          0        512       3043   diskio.o
        84         14          0          1          0     244757   exti.o
       980        548        411          0          0       5039   main.o
     11984        294       7884          0          0      45068   minimp3_adapter.o
       172         22          0          0          0       1981   misc.o
      2106         56        128          4          0      17545   pff.o
      3434        896        628         56        512      19352   sdcard_stub.o
        64         26        304          0       4608        816   startup_stm32f10x_hd.o
        12          6          0          0          0        505   stm32f10x_exti.o
       476          6          0          0          0       5547   stm32f10x_gpio.o
        26          0          0          0          0       3890   stm32f10x_it.o
       372         50          0         20          0       6028   stm32f10x_rcc.o
       300         62          0          0          0       7415   stm32f10x_sdio.o
       372         18          0          0          0       4615   stm32f10x_spi.o
       408          6          0          0          0       4882   stm32f10x_usart.o
       328         28          0          0          0       1881   system_stm32f10x.o
       324         28          0          8        128       4225   usart.o

    ----------------------------------------------------------------------
     26962       3184       9776        108      38412     422258   Object Totals
         0          0         32          0          0          0   (incl. Generated)
        58          0          4          6          0          0   (incl. Padding)

    ----------------------------------------------------------------------

      Code (inc. data)   RO Data    RW Data    ZI Data      Debug   Library Member Name

         8          0          0          0          0         68   __main.o
       392          4         17          0          0         92   __printf_flags_ss_wp.o
        14          0          0          0          0         68   __printf_wp.o
         0          0          0          0          0          0   __rtentry.o
        12          0          0          0          0          0   __rtentry2.o
         6          0          0          0          0          0   __rtentry4.o
        52          8          0          0          0          0   __scatter.o
        26          0          0          0          0          0   __scatter_copy.o
        28          0          0          0          0          0   __scatter_zi.o
        44          0          0          0          0        108   _printf_char.o
        48          6          0          0          0         96   _printf_char_common.o
        36          4          0          0          0         80   _printf_char_file.o
         6          0          0          0          0          0   _printf_d.o
       120         16          0          0          0         92   _printf_dec.o
        88          4         40          0          0         88   _printf_hex_int.o
       178          0          0          0          0         88   _printf_intcommon.o
        78          0          0          0          0        108   _printf_pad.o
         0          0          0          0          0          0   _printf_percent.o
         4          0          0          0          0          0   _printf_percent_end.o
         6          0          0          0          0          0   _printf_s.o
        82          0          0          0          0         80   _printf_str.o
         6          0          0          0          0          0   _printf_u.o
         6          0          0          0          0          0   _printf_x.o
        10          0          0          0          0         68   _sputc.o
        18          0          0          0          0         80   exit.o
         8          0          0          0          0         68   ferror.o
         6          0          0          0          0        152   heapauxi.o
         2          0          0          0          0          0   libinit.o
         2          0          0          0          0          0   libinit2.o
         2          0          0          0          0          0   libshutdown.o
         2          0          0          0          0          0   libshutdown2.o
         8          4          0          0         96         68   libspace.o
        88          0          0          0          0         76   memcmp.o
        24          4          0          0          0         84   noretval__2printf.o
        40          6          0          0          0         84   noretval__2sprintf.o
        68          0          0          0          0         68   rt_memclr.o
        78          0          0          0          0         80   rt_memclr_w.o
       138          0          0          0          0         68   rt_memcpy_v6.o
       100          0          0          0          0         80   rt_memcpy_w.o
       132          0          0          0          0         68   rt_memmove_v6.o
       122          0          0          0          0         80   rt_memmove_w.o
         2          0          0          0          0          0   rtexit.o
        10          0          0          0          0          0   rtexit2.o
        74          0          0          0          0         80   sys_stackheap_outer.o
         2          0          0          0          0         68   use_no_semi.o
         2          0          0          0          0         68   use_no_semi_2.o
        24          0          0          0          0         68   dcmpi.o
       120          4          0          0          0         92   dleqf.o
       156          4          0          0          0         92   dnaninf.o
        12          0          0          0          0         68   dretinf.o
       108          0          0          0          0         80   drleqf.o
        86          4          0          0          0         84   f2d.o
       450          8          0          0          0        236   faddsub_clz.o
        24          0          0          0          0         68   fcmpi.o
       388         76          0          0          0         96   fdiv.o
       104          4          0          0          0         84   feqf.o
        54          4          0          0          0         84   ffix.o
        48          0          0          0          0         68   fflt_clz.o
       258          4          0          0          0         84   fmul.o
       140          4          0          0          0         84   fnaninf.o
        10          0          0          0          0         68   fretinf.o
         0          0          0          0          0          0   usenofp.o

    ----------------------------------------------------------------------
      4178        168         60          0         96       3664   Library Totals
        18          0          3          0          0          0   (incl. Padding)

    ----------------------------------------------------------------------

      Code (inc. data)   RO Data    RW Data    ZI Data      Debug   Library Name

      2178         56         57          0         96       2308   c_w.l
      1982        112          0          0          0       1356   fz_ws.l

    ----------------------------------------------------------------------
      4178        168         60          0         96       3664   Library Totals

    ----------------------------------------------------------------------

==============================================================================


      Code (inc. data)   RO Data    RW Data    ZI Data      Debug   

     31140       3352       9836        108      38508     412606   Grand Totals
     31140       3352       9836        108      38508     412606   ELF Image Totals
     31140       3352       9836        108          0          0   ROM Totals

==============================================================================

    Total RO  Size (Code + RO Data)                40976 (  40.02kB)
    Total RW  Size (RW Data + ZI Data)             38616 (  37.71kB)
    Total ROM Size (Code + RO Data + RW Data)      41084 (  40.12kB)

==============================================================================

